
arduino io.elf:     file format elf32-avr

Sections:
Idx Name          Size      VMA       LMA       File off  Algn
  0 .data         0000016c  00800200  000020b6  0000214a  2**0
                  CONTENTS, ALLOC, LOAD, DATA
  1 .text         000020b6  00000000  00000000  00000094  2**1
                  CONTENTS, ALLOC, LOAD, READONLY, CODE
  2 .bss          000002bb  0080036c  0080036c  000022b6  2**0
                  ALLOC
  3 .comment      00000030  00000000  00000000  000022b6  2**0
                  CONTENTS, READONLY
  4 .note.gnu.avr.deviceinfo 00000040  00000000  00000000  000022e8  2**2
                  CONTENTS, READONLY
  5 .debug_aranges 00000390  00000000  00000000  00002328  2**0
                  CONTENTS, READONLY, DEBUGGING
  6 .debug_info   000062bf  00000000  00000000  000026b8  2**0
                  CONTENTS, READONLY, DEBUGGING
  7 .debug_abbrev 00001f1a  00000000  00000000  00008977  2**0
                  CONTENTS, READONLY, DEBUGGING
  8 .debug_line   00001f29  00000000  00000000  0000a891  2**0
                  CONTENTS, READONLY, DEBUGGING
  9 .debug_frame  000009dc  00000000  00000000  0000c7bc  2**2
                  CONTENTS, READONLY, DEBUGGING
 10 .debug_str    000017d7  00000000  00000000  0000d198  2**0
                  CONTENTS, READONLY, DEBUGGING
 11 .debug_loc    000027f1  00000000  00000000  0000e96f  2**0
                  CONTENTS, READONLY, DEBUGGING
 12 .debug_ranges 000003b0  00000000  00000000  00011160  2**0
                  CONTENTS, READONLY, DEBUGGING

Disassembly of section .text:

00000000 <__vectors>:
       0:	9b c0       	rjmp	.+310    	; 0x138 <__dtors_end>
       2:	00 00       	nop
       4:	ca c0       	rjmp	.+404    	; 0x19a <__bad_interrupt>
       6:	00 00       	nop
       8:	c8 c0       	rjmp	.+400    	; 0x19a <__bad_interrupt>
       a:	00 00       	nop
       c:	c6 c0       	rjmp	.+396    	; 0x19a <__bad_interrupt>
       e:	00 00       	nop
      10:	c4 c0       	rjmp	.+392    	; 0x19a <__bad_interrupt>
      12:	00 00       	nop
      14:	c2 c0       	rjmp	.+388    	; 0x19a <__bad_interrupt>
      16:	00 00       	nop
      18:	c0 c0       	rjmp	.+384    	; 0x19a <__bad_interrupt>
      1a:	00 00       	nop
      1c:	be c0       	rjmp	.+380    	; 0x19a <__bad_interrupt>
      1e:	00 00       	nop
      20:	bc c0       	rjmp	.+376    	; 0x19a <__bad_interrupt>
      22:	00 00       	nop
      24:	ba c0       	rjmp	.+372    	; 0x19a <__bad_interrupt>
      26:	00 00       	nop
      28:	b8 c0       	rjmp	.+368    	; 0x19a <__bad_interrupt>
      2a:	00 00       	nop
      2c:	b6 c0       	rjmp	.+364    	; 0x19a <__bad_interrupt>
      2e:	00 00       	nop
      30:	b4 c0       	rjmp	.+360    	; 0x19a <__bad_interrupt>
      32:	00 00       	nop
      34:	b2 c0       	rjmp	.+356    	; 0x19a <__bad_interrupt>
      36:	00 00       	nop
      38:	b0 c0       	rjmp	.+352    	; 0x19a <__bad_interrupt>
      3a:	00 00       	nop
      3c:	ae c0       	rjmp	.+348    	; 0x19a <__bad_interrupt>
      3e:	00 00       	nop
      40:	ac c0       	rjmp	.+344    	; 0x19a <__bad_interrupt>
      42:	00 00       	nop
      44:	aa c0       	rjmp	.+340    	; 0x19a <__bad_interrupt>
      46:	00 00       	nop
      48:	e6 c1       	rjmp	.+972    	; 0x416 <__vector_18>
      4a:	00 00       	nop
      4c:	a6 c0       	rjmp	.+332    	; 0x19a <__bad_interrupt>
      4e:	00 00       	nop
      50:	a4 c0       	rjmp	.+328    	; 0x19a <__bad_interrupt>
      52:	00 00       	nop
      54:	a2 c0       	rjmp	.+324    	; 0x19a <__bad_interrupt>
      56:	00 00       	nop
      58:	a0 c0       	rjmp	.+320    	; 0x19a <__bad_interrupt>
      5a:	00 00       	nop
      5c:	9e c0       	rjmp	.+316    	; 0x19a <__bad_interrupt>
      5e:	00 00       	nop
      60:	9c c0       	rjmp	.+312    	; 0x19a <__bad_interrupt>
      62:	00 00       	nop
      64:	0c 94 20 0e 	jmp	0x1c40	; 0x1c40 <__vector_25>
      68:	98 c0       	rjmp	.+304    	; 0x19a <__bad_interrupt>
      6a:	00 00       	nop
      6c:	96 c0       	rjmp	.+300    	; 0x19a <__bad_interrupt>
      6e:	00 00       	nop
      70:	94 c0       	rjmp	.+296    	; 0x19a <__bad_interrupt>
      72:	00 00       	nop
      74:	0c 94 12 0d 	jmp	0x1a24	; 0x1a24 <__vector_29>
      78:	90 c0       	rjmp	.+288    	; 0x19a <__bad_interrupt>
      7a:	00 00       	nop
      7c:	8e c0       	rjmp	.+284    	; 0x19a <__bad_interrupt>
      7e:	00 00       	nop
      80:	8c c0       	rjmp	.+280    	; 0x19a <__bad_interrupt>
      82:	00 00       	nop
      84:	8a c0       	rjmp	.+276    	; 0x19a <__bad_interrupt>
      86:	00 00       	nop
      88:	88 c0       	rjmp	.+272    	; 0x19a <__bad_interrupt>
      8a:	00 00       	nop
      8c:	86 c0       	rjmp	.+268    	; 0x19a <__bad_interrupt>
      8e:	00 00       	nop
      90:	0c 94 04 0e 	jmp	0x1c08	; 0x1c08 <__vector_36>
      94:	82 c0       	rjmp	.+260    	; 0x19a <__bad_interrupt>
      96:	00 00       	nop
      98:	80 c0       	rjmp	.+256    	; 0x19a <__bad_interrupt>
      9a:	00 00       	nop
      9c:	7e c0       	rjmp	.+252    	; 0x19a <__bad_interrupt>
      9e:	00 00       	nop
      a0:	7c c0       	rjmp	.+248    	; 0x19a <__bad_interrupt>
      a2:	00 00       	nop
      a4:	7a c0       	rjmp	.+244    	; 0x19a <__bad_interrupt>
      a6:	00 00       	nop
      a8:	78 c0       	rjmp	.+240    	; 0x19a <__bad_interrupt>
      aa:	00 00       	nop
      ac:	76 c0       	rjmp	.+236    	; 0x19a <__bad_interrupt>
      ae:	00 00       	nop
      b0:	74 c0       	rjmp	.+232    	; 0x19a <__bad_interrupt>
      b2:	00 00       	nop
      b4:	72 c0       	rjmp	.+228    	; 0x19a <__bad_interrupt>
      b6:	00 00       	nop
      b8:	70 c0       	rjmp	.+224    	; 0x19a <__bad_interrupt>
      ba:	00 00       	nop
      bc:	6e c0       	rjmp	.+220    	; 0x19a <__bad_interrupt>
      be:	00 00       	nop
      c0:	6c c0       	rjmp	.+216    	; 0x19a <__bad_interrupt>
      c2:	00 00       	nop
      c4:	6a c0       	rjmp	.+212    	; 0x19a <__bad_interrupt>
      c6:	00 00       	nop
      c8:	68 c0       	rjmp	.+208    	; 0x19a <__bad_interrupt>
      ca:	00 00       	nop
      cc:	66 c0       	rjmp	.+204    	; 0x19a <__bad_interrupt>
      ce:	00 00       	nop
      d0:	64 c0       	rjmp	.+200    	; 0x19a <__bad_interrupt>
      d2:	00 00       	nop
      d4:	62 c0       	rjmp	.+196    	; 0x19a <__bad_interrupt>
      d6:	00 00       	nop
      d8:	60 c0       	rjmp	.+192    	; 0x19a <__bad_interrupt>
      da:	00 00       	nop
      dc:	5e c0       	rjmp	.+188    	; 0x19a <__bad_interrupt>
      de:	00 00       	nop
      e0:	5c c0       	rjmp	.+184    	; 0x19a <__bad_interrupt>
      e2:	00 00       	nop
      e4:	36 01       	movw	r6, r12
      e6:	3e 01       	movw	r6, r28
      e8:	46 01       	movw	r8, r12
      ea:	4e 01       	movw	r8, r28
      ec:	56 01       	movw	r10, r12
      ee:	5e 01       	movw	r10, r28
      f0:	66 01       	movw	r12, r12
      f2:	6e 01       	movw	r12, r28
      f4:	79 01       	movw	r14, r18
      f6:	81 01       	movw	r16, r2
      f8:	89 01       	movw	r16, r18
      fa:	91 01       	movw	r18, r2
      fc:	99 01       	movw	r18, r18
      fe:	a1 01       	movw	r20, r2
     100:	a9 01       	movw	r20, r18
     102:	b1 01       	movw	r22, r2

00000104 <__trampolines_end>:
     104:	66 61       	ori	r22, 0x16	; 22
     106:	6c 73       	andi	r22, 0x3C	; 60
     108:	65 74       	Address 0x00000108 is out of bounds.
.word	0xffff	; ????

00000109 <_ZL8cmd_true>:
     109:	74 72 75 65                                         true

0000010d <_ZL8cmd_adc1>:
     10d:	61 64 63 31                                         adc1

00000111 <_ZL8cmd_adc0>:
     111:	61 64 63 30                                         adc0

00000115 <_ZL7cmd_io3>:
     115:	69 6f 33                                            io3

00000118 <_ZL7cmd_io2>:
     118:	69 6f 32                                            io2

0000011b <_ZL7cmd_io1>:
     11b:	69 6f 31                                            io1

0000011e <_ZL7cmd_io0>:
     11e:	69 6f 30                                            io0

00000121 <_ZL9cmd_value>:
     121:	76 61 6c 75 65                                      value

00000126 <_ZL10cmd_config>:
     126:	63 6f 6e 66 69 67                                   config

0000012c <_ZL6cmd_io>:
     12c:	69 6f                                               io

0000012e <_ZL7cmd_get>:
     12e:	67 65 74                                            get

00000131 <_ZL7cmd_set>:
     131:	73 65 74                                            set

00000134 <__ctors_start>:
     134:	3c 0d       	add	r19, r12

00000136 <__ctors_end>:
     136:	41 0d       	add	r20, r1

00000138 <__dtors_end>:
     138:	11 24       	eor	r1, r1
     13a:	1f be       	out	0x3f, r1	; 63
     13c:	cf ef       	ldi	r28, 0xFF	; 255
     13e:	d1 e2       	ldi	r29, 0x21	; 33
     140:	de bf       	out	0x3e, r29	; 62
     142:	cd bf       	out	0x3d, r28	; 61
     144:	00 e0       	ldi	r16, 0x00	; 0
     146:	0c bf       	out	0x3c, r16	; 60

00000148 <__do_copy_data>:
     148:	13 e0       	ldi	r17, 0x03	; 3
     14a:	a0 e0       	ldi	r26, 0x00	; 0
     14c:	b2 e0       	ldi	r27, 0x02	; 2
     14e:	e6 eb       	ldi	r30, 0xB6	; 182
     150:	f0 e2       	ldi	r31, 0x20	; 32
     152:	00 e0       	ldi	r16, 0x00	; 0
     154:	0b bf       	out	0x3b, r16	; 59
     156:	02 c0       	rjmp	.+4      	; 0x15c <__do_copy_data+0x14>
     158:	07 90       	elpm	r0, Z+
     15a:	0d 92       	st	X+, r0
     15c:	ac 36       	cpi	r26, 0x6C	; 108
     15e:	b1 07       	cpc	r27, r17
     160:	d9 f7       	brne	.-10     	; 0x158 <__do_copy_data+0x10>

00000162 <__do_clear_bss>:
     162:	26 e0       	ldi	r18, 0x06	; 6
     164:	ac e6       	ldi	r26, 0x6C	; 108
     166:	b3 e0       	ldi	r27, 0x03	; 3
     168:	01 c0       	rjmp	.+2      	; 0x16c <.do_clear_bss_start>

0000016a <.do_clear_bss_loop>:
     16a:	1d 92       	st	X+, r1

0000016c <.do_clear_bss_start>:
     16c:	a7 32       	cpi	r26, 0x27	; 39
     16e:	b2 07       	cpc	r27, r18
     170:	e1 f7       	brne	.-8      	; 0x16a <.do_clear_bss_loop>

00000172 <__do_global_ctors>:
     172:	10 e0       	ldi	r17, 0x00	; 0
     174:	cb e9       	ldi	r28, 0x9B	; 155
     176:	d0 e0       	ldi	r29, 0x00	; 0
     178:	00 e0       	ldi	r16, 0x00	; 0
     17a:	06 c0       	rjmp	.+12     	; 0x188 <__do_global_ctors+0x16>
     17c:	21 97       	sbiw	r28, 0x01	; 1
     17e:	01 09       	sbc	r16, r1
     180:	80 2f       	mov	r24, r16
     182:	fe 01       	movw	r30, r28
     184:	0e 94 b4 0e 	call	0x1d68	; 0x1d68 <__tablejump2__>
     188:	ca 39       	cpi	r28, 0x9A	; 154
     18a:	d1 07       	cpc	r29, r17
     18c:	80 e0       	ldi	r24, 0x00	; 0
     18e:	08 07       	cpc	r16, r24
     190:	a9 f7       	brne	.-22     	; 0x17c <__do_global_ctors+0xa>
     192:	0e 94 0b 0d 	call	0x1a16	; 0x1a16 <main>
     196:	0c 94 4a 10 	jmp	0x2094	; 0x2094 <__do_global_dtors>

0000019a <__bad_interrupt>:
     19a:	32 cf       	rjmp	.-412    	; 0x0 <__vectors>

0000019c <_ZN22AnalogDigitalConverterC1Ev>:
	}
	if(offset>170){
		offset=170;
	}
	return PT1000[offset];
}
     19c:	ef 92       	push	r14
     19e:	ff 92       	push	r15
     1a0:	0f 93       	push	r16
     1a2:	1f 93       	push	r17
     1a4:	cf 93       	push	r28
     1a6:	df 93       	push	r29
     1a8:	7c 01       	movw	r14, r24
     1aa:	ec 01       	movw	r28, r24
     1ac:	8c 01       	movw	r16, r24
     1ae:	00 54       	subi	r16, 0x40	; 64
     1b0:	1f 4f       	sbci	r17, 0xFF	; 255
     1b2:	ce 01       	movw	r24, r28
     1b4:	0e 94 ce 0d 	call	0x1b9c	; 0x1b9c <_ZN10iirlowpassC1Ev>
     1b8:	2c 96       	adiw	r28, 0x0c	; 12
     1ba:	c0 17       	cp	r28, r16
     1bc:	d1 07       	cpc	r29, r17
     1be:	c9 f7       	brne	.-14     	; 0x1b2 <_ZN22AnalogDigitalConverterC1Ev+0x16>
     1c0:	f7 01       	movw	r30, r14
     1c2:	e0 54       	subi	r30, 0x40	; 64
     1c4:	ff 4f       	sbci	r31, 0xFF	; 255
     1c6:	88 eb       	ldi	r24, 0xB8	; 184
     1c8:	91 e0       	ldi	r25, 0x01	; 1
     1ca:	91 83       	std	Z+1, r25	; 0x01
     1cc:	80 83       	st	Z, r24
     1ce:	d7 01       	movw	r26, r14
     1d0:	ae 53       	subi	r26, 0x3E	; 62
     1d2:	bf 4f       	sbci	r27, 0xFF	; 255
     1d4:	86 e5       	ldi	r24, 0x56	; 86
     1d6:	91 e0       	ldi	r25, 0x01	; 1
     1d8:	e6 e0       	ldi	r30, 0x06	; 6
     1da:	f2 e0       	ldi	r31, 0x02	; 2
     1dc:	01 90       	ld	r0, Z+
     1de:	0d 92       	st	X+, r0
     1e0:	01 97       	sbiw	r24, 0x01	; 1
     1e2:	e1 f7       	brne	.-8      	; 0x1dc <_ZN22AnalogDigitalConverterC1Ev+0x40>
     1e4:	d7 01       	movw	r26, r14
     1e6:	a8 5e       	subi	r26, 0xE8	; 232
     1e8:	bd 4f       	sbci	r27, 0xFD	; 253
     1ea:	80 e1       	ldi	r24, 0x10	; 16
     1ec:	ec e5       	ldi	r30, 0x5C	; 92
     1ee:	f3 e0       	ldi	r31, 0x03	; 3
     1f0:	01 90       	ld	r0, Z+
     1f2:	0d 92       	st	X+, r0
     1f4:	8a 95       	dec	r24
     1f6:	e1 f7       	brne	.-8      	; 0x1f0 <_ZN22AnalogDigitalConverterC1Ev+0x54>
     1f8:	80 ec       	ldi	r24, 0xC0	; 192
     1fa:	80 93 7c 00 	sts	0x007C, r24	; 0x80007c <__TEXT_REGION_LENGTH__+0x70007c>
     1fe:	8d ea       	ldi	r24, 0xAD	; 173
     200:	80 93 7a 00 	sts	0x007A, r24	; 0x80007a <__TEXT_REGION_LENGTH__+0x70007a>
     204:	85 e0       	ldi	r24, 0x05	; 5
     206:	80 93 7b 00 	sts	0x007B, r24	; 0x80007b <__TEXT_REGION_LENGTH__+0x70007b>
     20a:	f7 01       	movw	r30, r14
     20c:	e8 5d       	subi	r30, 0xD8	; 216
     20e:	fd 4f       	sbci	r31, 0xFD	; 253
     210:	10 82       	st	Z, r1
     212:	89 e0       	ldi	r24, 0x09	; 9
     214:	80 93 81 00 	sts	0x0081, r24	; 0x800081 <__TEXT_REGION_LENGTH__+0x700081>
     218:	84 e0       	ldi	r24, 0x04	; 4
     21a:	80 93 6f 00 	sts	0x006F, r24	; 0x80006f <__TEXT_REGION_LENGTH__+0x70006f>
     21e:	8a e0       	ldi	r24, 0x0A	; 10
     220:	9a e1       	ldi	r25, 0x1A	; 26
     222:	90 93 89 00 	sts	0x0089, r25	; 0x800089 <__TEXT_REGION_LENGTH__+0x700089>
     226:	80 93 88 00 	sts	0x0088, r24	; 0x800088 <__TEXT_REGION_LENGTH__+0x700088>
     22a:	8f ef       	ldi	r24, 0xFF	; 255
     22c:	80 93 7e 00 	sts	0x007E, r24	; 0x80007e <__TEXT_REGION_LENGTH__+0x70007e>
     230:	80 93 7d 00 	sts	0x007D, r24	; 0x80007d <__TEXT_REGION_LENGTH__+0x70007d>
     234:	df 91       	pop	r29
     236:	cf 91       	pop	r28
     238:	1f 91       	pop	r17
     23a:	0f 91       	pop	r16
     23c:	ff 90       	pop	r15
     23e:	ef 90       	pop	r14
     240:	08 95       	ret

00000242 <_ZN22AnalogDigitalConverter6sampleEv>:
     242:	0f 93       	push	r16
     244:	1f 93       	push	r17
     246:	cf 93       	push	r28
     248:	df 93       	push	r29
     24a:	ec 01       	movw	r28, r24
     24c:	fc 01       	movw	r30, r24
     24e:	e8 5d       	subi	r30, 0xD8	; 216
     250:	fd 4f       	sbci	r31, 0xFD	; 253
     252:	80 81       	ld	r24, Z
     254:	90 e0       	ldi	r25, 0x00	; 0
     256:	80 31       	cpi	r24, 0x10	; 16
     258:	91 05       	cpc	r25, r1
     25a:	08 f0       	brcs	.+2      	; 0x25e <_ZN22AnalogDigitalConverter6sampleEv+0x1c>
     25c:	8d c0       	rjmp	.+282    	; 0x378 <_ZN22AnalogDigitalConverter6sampleEv+0x136>
     25e:	fc 01       	movw	r30, r24
     260:	88 27       	eor	r24, r24
     262:	ee 58       	subi	r30, 0x8E	; 142
     264:	ff 4f       	sbci	r31, 0xFF	; 255
     266:	8f 4f       	sbci	r24, 0xFF	; 255
     268:	0c 94 b4 0e 	jmp	0x1d68	; 0x1d68 <__tablejump2__>
     26c:	60 91 78 00 	lds	r22, 0x0078	; 0x800078 <__TEXT_REGION_LENGTH__+0x700078>
     270:	70 91 79 00 	lds	r23, 0x0079	; 0x800079 <__TEXT_REGION_LENGTH__+0x700079>
     274:	81 ec       	ldi	r24, 0xC1	; 193
     276:	80 93 7c 00 	sts	0x007C, r24	; 0x80007c <__TEXT_REGION_LENGTH__+0x70007c>
     27a:	80 c0       	rjmp	.+256    	; 0x37c <_ZN22AnalogDigitalConverter6sampleEv+0x13a>
     27c:	60 91 78 00 	lds	r22, 0x0078	; 0x800078 <__TEXT_REGION_LENGTH__+0x700078>
     280:	70 91 79 00 	lds	r23, 0x0079	; 0x800079 <__TEXT_REGION_LENGTH__+0x700079>
     284:	82 ec       	ldi	r24, 0xC2	; 194
     286:	80 93 7c 00 	sts	0x007C, r24	; 0x80007c <__TEXT_REGION_LENGTH__+0x70007c>
     28a:	78 c0       	rjmp	.+240    	; 0x37c <_ZN22AnalogDigitalConverter6sampleEv+0x13a>
     28c:	60 91 78 00 	lds	r22, 0x0078	; 0x800078 <__TEXT_REGION_LENGTH__+0x700078>
     290:	70 91 79 00 	lds	r23, 0x0079	; 0x800079 <__TEXT_REGION_LENGTH__+0x700079>
     294:	83 ec       	ldi	r24, 0xC3	; 195
     296:	80 93 7c 00 	sts	0x007C, r24	; 0x80007c <__TEXT_REGION_LENGTH__+0x70007c>
     29a:	70 c0       	rjmp	.+224    	; 0x37c <_ZN22AnalogDigitalConverter6sampleEv+0x13a>
     29c:	60 91 78 00 	lds	r22, 0x0078	; 0x800078 <__TEXT_REGION_LENGTH__+0x700078>
     2a0:	70 91 79 00 	lds	r23, 0x0079	; 0x800079 <__TEXT_REGION_LENGTH__+0x700079>
     2a4:	84 ec       	ldi	r24, 0xC4	; 196
     2a6:	80 93 7c 00 	sts	0x007C, r24	; 0x80007c <__TEXT_REGION_LENGTH__+0x70007c>
     2aa:	68 c0       	rjmp	.+208    	; 0x37c <_ZN22AnalogDigitalConverter6sampleEv+0x13a>
     2ac:	60 91 78 00 	lds	r22, 0x0078	; 0x800078 <__TEXT_REGION_LENGTH__+0x700078>
     2b0:	70 91 79 00 	lds	r23, 0x0079	; 0x800079 <__TEXT_REGION_LENGTH__+0x700079>
     2b4:	85 ec       	ldi	r24, 0xC5	; 197
     2b6:	80 93 7c 00 	sts	0x007C, r24	; 0x80007c <__TEXT_REGION_LENGTH__+0x70007c>
     2ba:	60 c0       	rjmp	.+192    	; 0x37c <_ZN22AnalogDigitalConverter6sampleEv+0x13a>
     2bc:	60 91 78 00 	lds	r22, 0x0078	; 0x800078 <__TEXT_REGION_LENGTH__+0x700078>
     2c0:	70 91 79 00 	lds	r23, 0x0079	; 0x800079 <__TEXT_REGION_LENGTH__+0x700079>
     2c4:	86 ec       	ldi	r24, 0xC6	; 198
     2c6:	80 93 7c 00 	sts	0x007C, r24	; 0x80007c <__TEXT_REGION_LENGTH__+0x70007c>
     2ca:	58 c0       	rjmp	.+176    	; 0x37c <_ZN22AnalogDigitalConverter6sampleEv+0x13a>
     2cc:	60 91 78 00 	lds	r22, 0x0078	; 0x800078 <__TEXT_REGION_LENGTH__+0x700078>
     2d0:	70 91 79 00 	lds	r23, 0x0079	; 0x800079 <__TEXT_REGION_LENGTH__+0x700079>
     2d4:	87 ec       	ldi	r24, 0xC7	; 199
     2d6:	80 93 7c 00 	sts	0x007C, r24	; 0x80007c <__TEXT_REGION_LENGTH__+0x70007c>
     2da:	50 c0       	rjmp	.+160    	; 0x37c <_ZN22AnalogDigitalConverter6sampleEv+0x13a>
     2dc:	60 91 78 00 	lds	r22, 0x0078	; 0x800078 <__TEXT_REGION_LENGTH__+0x700078>
     2e0:	70 91 79 00 	lds	r23, 0x0079	; 0x800079 <__TEXT_REGION_LENGTH__+0x700079>
     2e4:	8d e0       	ldi	r24, 0x0D	; 13
     2e6:	80 93 7b 00 	sts	0x007B, r24	; 0x80007b <__TEXT_REGION_LENGTH__+0x70007b>
     2ea:	80 ec       	ldi	r24, 0xC0	; 192
     2ec:	80 93 7c 00 	sts	0x007C, r24	; 0x80007c <__TEXT_REGION_LENGTH__+0x70007c>
     2f0:	45 c0       	rjmp	.+138    	; 0x37c <_ZN22AnalogDigitalConverter6sampleEv+0x13a>
     2f2:	60 91 78 00 	lds	r22, 0x0078	; 0x800078 <__TEXT_REGION_LENGTH__+0x700078>
     2f6:	70 91 79 00 	lds	r23, 0x0079	; 0x800079 <__TEXT_REGION_LENGTH__+0x700079>
     2fa:	81 ec       	ldi	r24, 0xC1	; 193
     2fc:	80 93 7c 00 	sts	0x007C, r24	; 0x80007c <__TEXT_REGION_LENGTH__+0x70007c>
     300:	3d c0       	rjmp	.+122    	; 0x37c <_ZN22AnalogDigitalConverter6sampleEv+0x13a>
     302:	60 91 78 00 	lds	r22, 0x0078	; 0x800078 <__TEXT_REGION_LENGTH__+0x700078>
     306:	70 91 79 00 	lds	r23, 0x0079	; 0x800079 <__TEXT_REGION_LENGTH__+0x700079>
     30a:	82 ec       	ldi	r24, 0xC2	; 194
     30c:	80 93 7c 00 	sts	0x007C, r24	; 0x80007c <__TEXT_REGION_LENGTH__+0x70007c>
     310:	35 c0       	rjmp	.+106    	; 0x37c <_ZN22AnalogDigitalConverter6sampleEv+0x13a>
     312:	60 91 78 00 	lds	r22, 0x0078	; 0x800078 <__TEXT_REGION_LENGTH__+0x700078>
     316:	70 91 79 00 	lds	r23, 0x0079	; 0x800079 <__TEXT_REGION_LENGTH__+0x700079>
     31a:	83 ec       	ldi	r24, 0xC3	; 195
     31c:	80 93 7c 00 	sts	0x007C, r24	; 0x80007c <__TEXT_REGION_LENGTH__+0x70007c>
     320:	2d c0       	rjmp	.+90     	; 0x37c <_ZN22AnalogDigitalConverter6sampleEv+0x13a>
     322:	60 91 78 00 	lds	r22, 0x0078	; 0x800078 <__TEXT_REGION_LENGTH__+0x700078>
     326:	70 91 79 00 	lds	r23, 0x0079	; 0x800079 <__TEXT_REGION_LENGTH__+0x700079>
     32a:	84 ec       	ldi	r24, 0xC4	; 196
     32c:	80 93 7c 00 	sts	0x007C, r24	; 0x80007c <__TEXT_REGION_LENGTH__+0x70007c>
     330:	25 c0       	rjmp	.+74     	; 0x37c <_ZN22AnalogDigitalConverter6sampleEv+0x13a>
     332:	60 91 78 00 	lds	r22, 0x0078	; 0x800078 <__TEXT_REGION_LENGTH__+0x700078>
     336:	70 91 79 00 	lds	r23, 0x0079	; 0x800079 <__TEXT_REGION_LENGTH__+0x700079>
     33a:	85 ec       	ldi	r24, 0xC5	; 197
     33c:	80 93 7c 00 	sts	0x007C, r24	; 0x80007c <__TEXT_REGION_LENGTH__+0x70007c>
     340:	1d c0       	rjmp	.+58     	; 0x37c <_ZN22AnalogDigitalConverter6sampleEv+0x13a>
     342:	60 91 78 00 	lds	r22, 0x0078	; 0x800078 <__TEXT_REGION_LENGTH__+0x700078>
     346:	70 91 79 00 	lds	r23, 0x0079	; 0x800079 <__TEXT_REGION_LENGTH__+0x700079>
     34a:	86 ec       	ldi	r24, 0xC6	; 198
     34c:	80 93 7c 00 	sts	0x007C, r24	; 0x80007c <__TEXT_REGION_LENGTH__+0x70007c>
     350:	15 c0       	rjmp	.+42     	; 0x37c <_ZN22AnalogDigitalConverter6sampleEv+0x13a>
     352:	60 91 78 00 	lds	r22, 0x0078	; 0x800078 <__TEXT_REGION_LENGTH__+0x700078>
     356:	70 91 79 00 	lds	r23, 0x0079	; 0x800079 <__TEXT_REGION_LENGTH__+0x700079>
     35a:	87 ec       	ldi	r24, 0xC7	; 199
     35c:	80 93 7c 00 	sts	0x007C, r24	; 0x80007c <__TEXT_REGION_LENGTH__+0x70007c>
     360:	0d c0       	rjmp	.+26     	; 0x37c <_ZN22AnalogDigitalConverter6sampleEv+0x13a>
     362:	60 91 78 00 	lds	r22, 0x0078	; 0x800078 <__TEXT_REGION_LENGTH__+0x700078>
     366:	70 91 79 00 	lds	r23, 0x0079	; 0x800079 <__TEXT_REGION_LENGTH__+0x700079>
     36a:	80 ec       	ldi	r24, 0xC0	; 192
     36c:	80 93 7c 00 	sts	0x007C, r24	; 0x80007c <__TEXT_REGION_LENGTH__+0x70007c>
     370:	85 e0       	ldi	r24, 0x05	; 5
     372:	80 93 7b 00 	sts	0x007B, r24	; 0x80007b <__TEXT_REGION_LENGTH__+0x70007b>
     376:	02 c0       	rjmp	.+4      	; 0x37c <_ZN22AnalogDigitalConverter6sampleEv+0x13a>
     378:	60 e0       	ldi	r22, 0x00	; 0
     37a:	70 e0       	ldi	r23, 0x00	; 0
     37c:	fe 01       	movw	r30, r28
     37e:	e8 5d       	subi	r30, 0xD8	; 216
     380:	fd 4f       	sbci	r31, 0xFD	; 253
     382:	20 81       	ld	r18, Z
     384:	30 e0       	ldi	r19, 0x00	; 0
     386:	fe 01       	movw	r30, r28
     388:	e2 0f       	add	r30, r18
     38a:	f3 1f       	adc	r31, r19
     38c:	e8 5e       	subi	r30, 0xE8	; 232
     38e:	fd 4f       	sbci	r31, 0xFD	; 253
     390:	80 81       	ld	r24, Z
     392:	88 23       	and	r24, r24
     394:	b1 f0       	breq	.+44     	; 0x3c2 <_ZN22AnalogDigitalConverter6sampleEv+0x180>
     396:	89 01       	movw	r16, r18
     398:	00 0f       	add	r16, r16
     39a:	11 1f       	adc	r17, r17
     39c:	20 0f       	add	r18, r16
     39e:	31 1f       	adc	r19, r17
     3a0:	c9 01       	movw	r24, r18
     3a2:	88 0f       	add	r24, r24
     3a4:	99 1f       	adc	r25, r25
     3a6:	88 0f       	add	r24, r24
     3a8:	99 1f       	adc	r25, r25
     3aa:	8c 0f       	add	r24, r28
     3ac:	9d 1f       	adc	r25, r29
     3ae:	0e 94 58 0d 	call	0x1ab0	; 0x1ab0 <_ZN10iirlowpass6sampleEi>
     3b2:	0c 0f       	add	r16, r28
     3b4:	1d 1f       	adc	r17, r29
     3b6:	f8 01       	movw	r30, r16
     3b8:	e7 5d       	subi	r30, 0xD7	; 215
     3ba:	fd 4f       	sbci	r31, 0xFD	; 253
     3bc:	91 83       	std	Z+1, r25	; 0x01
     3be:	80 83       	st	Z, r24
     3c0:	09 c0       	rjmp	.+18     	; 0x3d4 <_ZN22AnalogDigitalConverter6sampleEv+0x192>
     3c2:	22 0f       	add	r18, r18
     3c4:	33 1f       	adc	r19, r19
     3c6:	2c 0f       	add	r18, r28
     3c8:	3d 1f       	adc	r19, r29
     3ca:	f9 01       	movw	r30, r18
     3cc:	e7 5d       	subi	r30, 0xD7	; 215
     3ce:	fd 4f       	sbci	r31, 0xFD	; 253
     3d0:	71 83       	std	Z+1, r23	; 0x01
     3d2:	60 83       	st	Z, r22
     3d4:	fe 01       	movw	r30, r28
     3d6:	e8 5d       	subi	r30, 0xD8	; 216
     3d8:	fd 4f       	sbci	r31, 0xFD	; 253
     3da:	80 81       	ld	r24, Z
     3dc:	8f 30       	cpi	r24, 0x0F	; 15
     3de:	18 f4       	brcc	.+6      	; 0x3e6 <_ZN22AnalogDigitalConverter6sampleEv+0x1a4>
     3e0:	8f 5f       	subi	r24, 0xFF	; 255
     3e2:	80 83       	st	Z, r24
     3e4:	03 c0       	rjmp	.+6      	; 0x3ec <_ZN22AnalogDigitalConverter6sampleEv+0x1aa>
     3e6:	c8 5d       	subi	r28, 0xD8	; 216
     3e8:	dd 4f       	sbci	r29, 0xFD	; 253
     3ea:	18 82       	st	Y, r1
     3ec:	df 91       	pop	r29
     3ee:	cf 91       	pop	r28
     3f0:	1f 91       	pop	r17
     3f2:	0f 91       	pop	r16
     3f4:	08 95       	ret

000003f6 <_ZN22AnalogDigitalConverter9getoutputEh>:
     3f6:	60 31       	cpi	r22, 0x10	; 16
     3f8:	58 f4       	brcc	.+22     	; 0x410 <__LOCK_REGION_LENGTH__+0x10>
     3fa:	70 e0       	ldi	r23, 0x00	; 0
     3fc:	66 0f       	add	r22, r22
     3fe:	77 1f       	adc	r23, r23
     400:	86 0f       	add	r24, r22
     402:	97 1f       	adc	r25, r23
     404:	fc 01       	movw	r30, r24
     406:	e7 5d       	subi	r30, 0xD7	; 215
     408:	fd 4f       	sbci	r31, 0xFD	; 253
     40a:	80 81       	ld	r24, Z
     40c:	91 81       	ldd	r25, Z+1	; 0x01
     40e:	08 95       	ret
     410:	8f ef       	ldi	r24, 0xFF	; 255
     412:	9f ef       	ldi	r25, 0xFF	; 255
     414:	08 95       	ret

00000416 <__vector_18>:
ISR(TIMER1_COMPB_vect){///zum löschen des interupt bits
     416:	1f 92       	push	r1
     418:	0f 92       	push	r0
     41a:	0f b6       	in	r0, 0x3f	; 63
     41c:	0f 92       	push	r0
     41e:	11 24       	eor	r1, r1
	asm("nop");
     420:	00 00       	nop
}
     422:	0f 90       	pop	r0
     424:	0f be       	out	0x3f, r0	; 63
     426:	0f 90       	pop	r0
     428:	1f 90       	pop	r1
     42a:	18 95       	reti

0000042c <_Z14cmdHandler__iov>:
			}else{
			io3->pin[i]->set(false);
		}
	}
	serial_out0(ack);
 }
     42c:	08 95       	ret

0000042e <_Z18cmdHandler__io_setv>:
     42e:	08 95       	ret

00000430 <_Z24cmdHandler__io_set_valuev>:
     430:	08 95       	ret

00000432 <_Z28cmdHandler__io_set_value_io2i>:
     432:	ef 92       	push	r14
     434:	ff 92       	push	r15
     436:	0f 93       	push	r16
     438:	1f 93       	push	r17
     43a:	cf 93       	push	r28
     43c:	df 93       	push	r29
     43e:	c0 e0       	ldi	r28, 0x00	; 0
     440:	d0 e0       	ldi	r29, 0x00	; 0
     442:	ee 24       	eor	r14, r14
     444:	e3 94       	inc	r14
     446:	f1 2c       	mov	r15, r1
     448:	8c 01       	movw	r16, r24
     44a:	11 27       	eor	r17, r17
     44c:	97 01       	movw	r18, r14
     44e:	0c 2e       	mov	r0, r28
     450:	02 c0       	rjmp	.+4      	; 0x456 <_Z28cmdHandler__io_set_value_io2i+0x24>
     452:	22 0f       	add	r18, r18
     454:	33 1f       	adc	r19, r19
     456:	0a 94       	dec	r0
     458:	e2 f7       	brpl	.-8      	; 0x452 <_Z28cmdHandler__io_set_value_io2i+0x20>
     45a:	c8 01       	movw	r24, r16
     45c:	82 23       	and	r24, r18
     45e:	93 23       	and	r25, r19
     460:	28 17       	cp	r18, r24
     462:	39 07       	cpc	r19, r25
     464:	71 f4       	brne	.+28     	; 0x482 <_Z28cmdHandler__io_set_value_io2i+0x50>
     466:	e0 91 6e 03 	lds	r30, 0x036E	; 0x80036e <io2>
     46a:	f0 91 6f 03 	lds	r31, 0x036F	; 0x80036f <io2+0x1>
     46e:	ce 01       	movw	r24, r28
     470:	88 0f       	add	r24, r24
     472:	99 1f       	adc	r25, r25
     474:	e8 0f       	add	r30, r24
     476:	f9 1f       	adc	r31, r25
     478:	61 e0       	ldi	r22, 0x01	; 1
     47a:	80 81       	ld	r24, Z
     47c:	91 81       	ldd	r25, Z+1	; 0x01
     47e:	6d d7       	rcall	.+3802   	; 0x135a <_ZN6io_pin3setEb>
     480:	0d c0       	rjmp	.+26     	; 0x49c <_Z28cmdHandler__io_set_value_io2i+0x6a>
     482:	e0 91 6e 03 	lds	r30, 0x036E	; 0x80036e <io2>
     486:	f0 91 6f 03 	lds	r31, 0x036F	; 0x80036f <io2+0x1>
     48a:	ce 01       	movw	r24, r28
     48c:	88 0f       	add	r24, r24
     48e:	99 1f       	adc	r25, r25
     490:	e8 0f       	add	r30, r24
     492:	f9 1f       	adc	r31, r25
     494:	60 e0       	ldi	r22, 0x00	; 0
     496:	80 81       	ld	r24, Z
     498:	91 81       	ldd	r25, Z+1	; 0x01
     49a:	5f d7       	rcall	.+3774   	; 0x135a <_ZN6io_pin3setEb>
     49c:	21 96       	adiw	r28, 0x01	; 1
     49e:	c8 30       	cpi	r28, 0x08	; 8
     4a0:	d1 05       	cpc	r29, r1
     4a2:	a1 f6       	brne	.-88     	; 0x44c <_Z28cmdHandler__io_set_value_io2i+0x1a>
     4a4:	8a e0       	ldi	r24, 0x0A	; 10
     4a6:	0e 94 12 0e 	call	0x1c24	; 0x1c24 <_Z11serial_out0h>
     4aa:	df 91       	pop	r29
     4ac:	cf 91       	pop	r28
     4ae:	1f 91       	pop	r17
     4b0:	0f 91       	pop	r16
     4b2:	ff 90       	pop	r15
     4b4:	ef 90       	pop	r14
     4b6:	08 95       	ret

000004b8 <_Z33cmdHandler__io_set_value_io0_truei>:
 void cmdHandler__io_set_value_io0_true(int16_t pinnum){
     4b8:	cf 93       	push	r28
     4ba:	df 93       	push	r29
	if(pinnum >= 0 && pinnum <= 7 && io0->pin[pinnum]->getconfig()==output){
     4bc:	88 30       	cpi	r24, 0x08	; 8
     4be:	91 05       	cpc	r25, r1
     4c0:	f8 f4       	brcc	.+62     	; 0x500 <_Z33cmdHandler__io_set_value_io0_truei+0x48>
     4c2:	ec 01       	movw	r28, r24
     4c4:	e0 91 72 03 	lds	r30, 0x0372	; 0x800372 <io0>
     4c8:	f0 91 73 03 	lds	r31, 0x0373	; 0x800373 <io0+0x1>
     4cc:	88 0f       	add	r24, r24
     4ce:	99 1f       	adc	r25, r25
     4d0:	e8 0f       	add	r30, r24
     4d2:	f9 1f       	adc	r31, r25
     4d4:	80 81       	ld	r24, Z
     4d6:	91 81       	ldd	r25, Z+1	; 0x01
     4d8:	d0 d7       	rcall	.+4000   	; 0x147a <_ZN6io_pin9getconfigEv>
     4da:	81 30       	cpi	r24, 0x01	; 1
     4dc:	89 f4       	brne	.+34     	; 0x500 <_Z33cmdHandler__io_set_value_io0_truei+0x48>
		io0->pin[pinnum]->set(true);
     4de:	20 91 72 03 	lds	r18, 0x0372	; 0x800372 <io0>
     4e2:	30 91 73 03 	lds	r19, 0x0373	; 0x800373 <io0+0x1>
     4e6:	ce 01       	movw	r24, r28
     4e8:	88 0f       	add	r24, r24
     4ea:	99 1f       	adc	r25, r25
     4ec:	e9 01       	movw	r28, r18
     4ee:	c8 0f       	add	r28, r24
     4f0:	d9 1f       	adc	r29, r25
     4f2:	61 e0       	ldi	r22, 0x01	; 1
     4f4:	88 81       	ld	r24, Y
     4f6:	99 81       	ldd	r25, Y+1	; 0x01
     4f8:	30 d7       	rcall	.+3680   	; 0x135a <_ZN6io_pin3setEb>
		serial_out0(ack);
     4fa:	8a e0       	ldi	r24, 0x0A	; 10
     4fc:	0e 94 12 0e 	call	0x1c24	; 0x1c24 <_Z11serial_out0h>
	}
 }
     500:	df 91       	pop	r29
     502:	cf 91       	pop	r28
     504:	08 95       	ret

00000506 <_Z34cmdHandler__io_set_value_io0_falsei>:
 void cmdHandler__io_set_value_io0_false(int16_t pinnum){
     506:	cf 93       	push	r28
     508:	df 93       	push	r29
	if(pinnum >= 0 && pinnum <= 7 && io0->pin[pinnum]->getconfig()==output){
     50a:	88 30       	cpi	r24, 0x08	; 8
     50c:	91 05       	cpc	r25, r1
     50e:	f8 f4       	brcc	.+62     	; 0x54e <_Z34cmdHandler__io_set_value_io0_falsei+0x48>
     510:	ec 01       	movw	r28, r24
     512:	e0 91 72 03 	lds	r30, 0x0372	; 0x800372 <io0>
     516:	f0 91 73 03 	lds	r31, 0x0373	; 0x800373 <io0+0x1>
     51a:	88 0f       	add	r24, r24
     51c:	99 1f       	adc	r25, r25
     51e:	e8 0f       	add	r30, r24
     520:	f9 1f       	adc	r31, r25
     522:	80 81       	ld	r24, Z
     524:	91 81       	ldd	r25, Z+1	; 0x01
     526:	a9 d7       	rcall	.+3922   	; 0x147a <_ZN6io_pin9getconfigEv>
     528:	81 30       	cpi	r24, 0x01	; 1
     52a:	89 f4       	brne	.+34     	; 0x54e <_Z34cmdHandler__io_set_value_io0_falsei+0x48>
		io0->pin[pinnum]->set(false);
     52c:	20 91 72 03 	lds	r18, 0x0372	; 0x800372 <io0>
     530:	30 91 73 03 	lds	r19, 0x0373	; 0x800373 <io0+0x1>
     534:	ce 01       	movw	r24, r28
     536:	88 0f       	add	r24, r24
     538:	99 1f       	adc	r25, r25
     53a:	e9 01       	movw	r28, r18
     53c:	c8 0f       	add	r28, r24
     53e:	d9 1f       	adc	r29, r25
     540:	60 e0       	ldi	r22, 0x00	; 0
     542:	88 81       	ld	r24, Y
     544:	99 81       	ldd	r25, Y+1	; 0x01
     546:	09 d7       	rcall	.+3602   	; 0x135a <_ZN6io_pin3setEb>
		serial_out0(ack);
     548:	8a e0       	ldi	r24, 0x0A	; 10
     54a:	0e 94 12 0e 	call	0x1c24	; 0x1c24 <_Z11serial_out0h>
	}
 }
     54e:	df 91       	pop	r29
     550:	cf 91       	pop	r28
     552:	08 95       	ret

00000554 <_Z33cmdHandler__io_set_value_io1_truei>:
 void cmdHandler__io_set_value_io1_true(int16_t pinnum){
     554:	cf 93       	push	r28
     556:	df 93       	push	r29
	if(pinnum >= 0 && pinnum <= 7 && io1->pin[pinnum]->getconfig()==output){
     558:	88 30       	cpi	r24, 0x08	; 8
     55a:	91 05       	cpc	r25, r1
     55c:	f8 f4       	brcc	.+62     	; 0x59c <_Z33cmdHandler__io_set_value_io1_truei+0x48>
     55e:	ec 01       	movw	r28, r24
     560:	e0 91 70 03 	lds	r30, 0x0370	; 0x800370 <io1>
     564:	f0 91 71 03 	lds	r31, 0x0371	; 0x800371 <io1+0x1>
     568:	88 0f       	add	r24, r24
     56a:	99 1f       	adc	r25, r25
     56c:	e8 0f       	add	r30, r24
     56e:	f9 1f       	adc	r31, r25
     570:	80 81       	ld	r24, Z
     572:	91 81       	ldd	r25, Z+1	; 0x01
     574:	82 d7       	rcall	.+3844   	; 0x147a <_ZN6io_pin9getconfigEv>
     576:	81 30       	cpi	r24, 0x01	; 1
     578:	89 f4       	brne	.+34     	; 0x59c <_Z33cmdHandler__io_set_value_io1_truei+0x48>
		io1->pin[pinnum]->set(true);
     57a:	20 91 70 03 	lds	r18, 0x0370	; 0x800370 <io1>
     57e:	30 91 71 03 	lds	r19, 0x0371	; 0x800371 <io1+0x1>
     582:	ce 01       	movw	r24, r28
     584:	88 0f       	add	r24, r24
     586:	99 1f       	adc	r25, r25
     588:	e9 01       	movw	r28, r18
     58a:	c8 0f       	add	r28, r24
     58c:	d9 1f       	adc	r29, r25
     58e:	61 e0       	ldi	r22, 0x01	; 1
     590:	88 81       	ld	r24, Y
     592:	99 81       	ldd	r25, Y+1	; 0x01
     594:	e2 d6       	rcall	.+3524   	; 0x135a <_ZN6io_pin3setEb>
		serial_out0(ack);
     596:	8a e0       	ldi	r24, 0x0A	; 10
     598:	0e 94 12 0e 	call	0x1c24	; 0x1c24 <_Z11serial_out0h>
	}
 }
     59c:	df 91       	pop	r29
     59e:	cf 91       	pop	r28
     5a0:	08 95       	ret

000005a2 <_Z34cmdHandler__io_set_value_io1_falsei>:
 void cmdHandler__io_set_value_io1_false(int16_t pinnum){
     5a2:	cf 93       	push	r28
     5a4:	df 93       	push	r29
 	if(pinnum >= 0 && pinnum <= 7 && io1->pin[pinnum]->getconfig()==output){
     5a6:	88 30       	cpi	r24, 0x08	; 8
     5a8:	91 05       	cpc	r25, r1
     5aa:	f8 f4       	brcc	.+62     	; 0x5ea <_Z34cmdHandler__io_set_value_io1_falsei+0x48>
     5ac:	ec 01       	movw	r28, r24
     5ae:	e0 91 70 03 	lds	r30, 0x0370	; 0x800370 <io1>
     5b2:	f0 91 71 03 	lds	r31, 0x0371	; 0x800371 <io1+0x1>
     5b6:	88 0f       	add	r24, r24
     5b8:	99 1f       	adc	r25, r25
     5ba:	e8 0f       	add	r30, r24
     5bc:	f9 1f       	adc	r31, r25
     5be:	80 81       	ld	r24, Z
     5c0:	91 81       	ldd	r25, Z+1	; 0x01
     5c2:	5b d7       	rcall	.+3766   	; 0x147a <_ZN6io_pin9getconfigEv>
     5c4:	81 30       	cpi	r24, 0x01	; 1
     5c6:	89 f4       	brne	.+34     	; 0x5ea <_Z34cmdHandler__io_set_value_io1_falsei+0x48>
	 	io1->pin[pinnum]->set(false);
     5c8:	20 91 70 03 	lds	r18, 0x0370	; 0x800370 <io1>
     5cc:	30 91 71 03 	lds	r19, 0x0371	; 0x800371 <io1+0x1>
     5d0:	ce 01       	movw	r24, r28
     5d2:	88 0f       	add	r24, r24
     5d4:	99 1f       	adc	r25, r25
     5d6:	e9 01       	movw	r28, r18
     5d8:	c8 0f       	add	r28, r24
     5da:	d9 1f       	adc	r29, r25
     5dc:	60 e0       	ldi	r22, 0x00	; 0
     5de:	88 81       	ld	r24, Y
     5e0:	99 81       	ldd	r25, Y+1	; 0x01
     5e2:	bb d6       	rcall	.+3446   	; 0x135a <_ZN6io_pin3setEb>
	 	serial_out0(ack);
     5e4:	8a e0       	ldi	r24, 0x0A	; 10
     5e6:	0e 94 12 0e 	call	0x1c24	; 0x1c24 <_Z11serial_out0h>
 	}
 }
     5ea:	df 91       	pop	r29
     5ec:	cf 91       	pop	r28
     5ee:	08 95       	ret

000005f0 <_Z33cmdHandler__io_set_value_io2_truei>:
 void cmdHandler__io_set_value_io2_true(int16_t pinnum){
     5f0:	cf 93       	push	r28
     5f2:	df 93       	push	r29
 	if(pinnum >= 0 && pinnum <= 7 && io2->pin[pinnum]->getconfig()==output){
     5f4:	88 30       	cpi	r24, 0x08	; 8
     5f6:	91 05       	cpc	r25, r1
     5f8:	f8 f4       	brcc	.+62     	; 0x638 <_Z33cmdHandler__io_set_value_io2_truei+0x48>
     5fa:	ec 01       	movw	r28, r24
     5fc:	e0 91 6e 03 	lds	r30, 0x036E	; 0x80036e <io2>
     600:	f0 91 6f 03 	lds	r31, 0x036F	; 0x80036f <io2+0x1>
     604:	88 0f       	add	r24, r24
     606:	99 1f       	adc	r25, r25
     608:	e8 0f       	add	r30, r24
     60a:	f9 1f       	adc	r31, r25
     60c:	80 81       	ld	r24, Z
     60e:	91 81       	ldd	r25, Z+1	; 0x01
     610:	34 d7       	rcall	.+3688   	; 0x147a <_ZN6io_pin9getconfigEv>
     612:	81 30       	cpi	r24, 0x01	; 1
     614:	89 f4       	brne	.+34     	; 0x638 <_Z33cmdHandler__io_set_value_io2_truei+0x48>
	 	io2->pin[pinnum]->set(true);
     616:	20 91 6e 03 	lds	r18, 0x036E	; 0x80036e <io2>
     61a:	30 91 6f 03 	lds	r19, 0x036F	; 0x80036f <io2+0x1>
     61e:	ce 01       	movw	r24, r28
     620:	88 0f       	add	r24, r24
     622:	99 1f       	adc	r25, r25
     624:	e9 01       	movw	r28, r18
     626:	c8 0f       	add	r28, r24
     628:	d9 1f       	adc	r29, r25
     62a:	61 e0       	ldi	r22, 0x01	; 1
     62c:	88 81       	ld	r24, Y
     62e:	99 81       	ldd	r25, Y+1	; 0x01
     630:	94 d6       	rcall	.+3368   	; 0x135a <_ZN6io_pin3setEb>
	 	serial_out0(ack);
     632:	8a e0       	ldi	r24, 0x0A	; 10
     634:	0e 94 12 0e 	call	0x1c24	; 0x1c24 <_Z11serial_out0h>
 	}
 }
     638:	df 91       	pop	r29
     63a:	cf 91       	pop	r28
     63c:	08 95       	ret

0000063e <_Z34cmdHandler__io_set_value_io2_falsei>:
 void cmdHandler__io_set_value_io2_false(int16_t pinnum){
     63e:	cf 93       	push	r28
     640:	df 93       	push	r29
	if(pinnum >= 0 && pinnum <= 7 && io2->pin[pinnum]->getconfig()==output){
     642:	88 30       	cpi	r24, 0x08	; 8
     644:	91 05       	cpc	r25, r1
     646:	f8 f4       	brcc	.+62     	; 0x686 <_Z34cmdHandler__io_set_value_io2_falsei+0x48>
     648:	ec 01       	movw	r28, r24
     64a:	e0 91 6e 03 	lds	r30, 0x036E	; 0x80036e <io2>
     64e:	f0 91 6f 03 	lds	r31, 0x036F	; 0x80036f <io2+0x1>
     652:	88 0f       	add	r24, r24
     654:	99 1f       	adc	r25, r25
     656:	e8 0f       	add	r30, r24
     658:	f9 1f       	adc	r31, r25
     65a:	80 81       	ld	r24, Z
     65c:	91 81       	ldd	r25, Z+1	; 0x01
     65e:	0d d7       	rcall	.+3610   	; 0x147a <_ZN6io_pin9getconfigEv>
     660:	81 30       	cpi	r24, 0x01	; 1
     662:	89 f4       	brne	.+34     	; 0x686 <_Z34cmdHandler__io_set_value_io2_falsei+0x48>
		io2->pin[pinnum]->set(false);
     664:	20 91 6e 03 	lds	r18, 0x036E	; 0x80036e <io2>
     668:	30 91 6f 03 	lds	r19, 0x036F	; 0x80036f <io2+0x1>
     66c:	ce 01       	movw	r24, r28
     66e:	88 0f       	add	r24, r24
     670:	99 1f       	adc	r25, r25
     672:	e9 01       	movw	r28, r18
     674:	c8 0f       	add	r28, r24
     676:	d9 1f       	adc	r29, r25
     678:	60 e0       	ldi	r22, 0x00	; 0
     67a:	88 81       	ld	r24, Y
     67c:	99 81       	ldd	r25, Y+1	; 0x01
     67e:	6d d6       	rcall	.+3290   	; 0x135a <_ZN6io_pin3setEb>
		serial_out0(ack);
     680:	8a e0       	ldi	r24, 0x0A	; 10
     682:	0e 94 12 0e 	call	0x1c24	; 0x1c24 <_Z11serial_out0h>
	}
 }
     686:	df 91       	pop	r29
     688:	cf 91       	pop	r28
     68a:	08 95       	ret

0000068c <_Z33cmdHandler__io_set_value_io3_truei>:
 void cmdHandler__io_set_value_io3_true(int16_t pinnum){
     68c:	cf 93       	push	r28
     68e:	df 93       	push	r29
 	if(pinnum >= 0 && pinnum <= 7 && io3->pin[pinnum]->getconfig()==output){
     690:	88 30       	cpi	r24, 0x08	; 8
     692:	91 05       	cpc	r25, r1
     694:	f8 f4       	brcc	.+62     	; 0x6d4 <_Z33cmdHandler__io_set_value_io3_truei+0x48>
     696:	ec 01       	movw	r28, r24
     698:	e0 91 6c 03 	lds	r30, 0x036C	; 0x80036c <__data_end>
     69c:	f0 91 6d 03 	lds	r31, 0x036D	; 0x80036d <__data_end+0x1>
     6a0:	88 0f       	add	r24, r24
     6a2:	99 1f       	adc	r25, r25
     6a4:	e8 0f       	add	r30, r24
     6a6:	f9 1f       	adc	r31, r25
     6a8:	80 81       	ld	r24, Z
     6aa:	91 81       	ldd	r25, Z+1	; 0x01
     6ac:	e6 d6       	rcall	.+3532   	; 0x147a <_ZN6io_pin9getconfigEv>
     6ae:	81 30       	cpi	r24, 0x01	; 1
     6b0:	89 f4       	brne	.+34     	; 0x6d4 <_Z33cmdHandler__io_set_value_io3_truei+0x48>
	 	io3->pin[pinnum]->set(true);
     6b2:	20 91 6c 03 	lds	r18, 0x036C	; 0x80036c <__data_end>
     6b6:	30 91 6d 03 	lds	r19, 0x036D	; 0x80036d <__data_end+0x1>
     6ba:	ce 01       	movw	r24, r28
     6bc:	88 0f       	add	r24, r24
     6be:	99 1f       	adc	r25, r25
     6c0:	e9 01       	movw	r28, r18
     6c2:	c8 0f       	add	r28, r24
     6c4:	d9 1f       	adc	r29, r25
     6c6:	61 e0       	ldi	r22, 0x01	; 1
     6c8:	88 81       	ld	r24, Y
     6ca:	99 81       	ldd	r25, Y+1	; 0x01
     6cc:	46 d6       	rcall	.+3212   	; 0x135a <_ZN6io_pin3setEb>
	 	serial_out0(ack);
     6ce:	8a e0       	ldi	r24, 0x0A	; 10
     6d0:	0e 94 12 0e 	call	0x1c24	; 0x1c24 <_Z11serial_out0h>
 	}
 }
     6d4:	df 91       	pop	r29
     6d6:	cf 91       	pop	r28
     6d8:	08 95       	ret

000006da <_Z34cmdHandler__io_set_value_io3_falsei>:
 void cmdHandler__io_set_value_io3_false(int16_t pinnum){
     6da:	cf 93       	push	r28
     6dc:	df 93       	push	r29
 	if(pinnum >= 0 && pinnum <= 7 && io3->pin[pinnum]->getconfig()==output){
     6de:	88 30       	cpi	r24, 0x08	; 8
     6e0:	91 05       	cpc	r25, r1
     6e2:	f8 f4       	brcc	.+62     	; 0x722 <_Z34cmdHandler__io_set_value_io3_falsei+0x48>
     6e4:	ec 01       	movw	r28, r24
     6e6:	e0 91 6c 03 	lds	r30, 0x036C	; 0x80036c <__data_end>
     6ea:	f0 91 6d 03 	lds	r31, 0x036D	; 0x80036d <__data_end+0x1>
     6ee:	88 0f       	add	r24, r24
     6f0:	99 1f       	adc	r25, r25
     6f2:	e8 0f       	add	r30, r24
     6f4:	f9 1f       	adc	r31, r25
     6f6:	80 81       	ld	r24, Z
     6f8:	91 81       	ldd	r25, Z+1	; 0x01
     6fa:	bf d6       	rcall	.+3454   	; 0x147a <_ZN6io_pin9getconfigEv>
     6fc:	81 30       	cpi	r24, 0x01	; 1
     6fe:	89 f4       	brne	.+34     	; 0x722 <_Z34cmdHandler__io_set_value_io3_falsei+0x48>
	 	io3->pin[pinnum]->set(false);
     700:	20 91 6c 03 	lds	r18, 0x036C	; 0x80036c <__data_end>
     704:	30 91 6d 03 	lds	r19, 0x036D	; 0x80036d <__data_end+0x1>
     708:	ce 01       	movw	r24, r28
     70a:	88 0f       	add	r24, r24
     70c:	99 1f       	adc	r25, r25
     70e:	e9 01       	movw	r28, r18
     710:	c8 0f       	add	r28, r24
     712:	d9 1f       	adc	r29, r25
     714:	60 e0       	ldi	r22, 0x00	; 0
     716:	88 81       	ld	r24, Y
     718:	99 81       	ldd	r25, Y+1	; 0x01
     71a:	1f d6       	rcall	.+3134   	; 0x135a <_ZN6io_pin3setEb>
	 	serial_out0(ack);
     71c:	8a e0       	ldi	r24, 0x0A	; 10
     71e:	0e 94 12 0e 	call	0x1c24	; 0x1c24 <_Z11serial_out0h>
 	}
 }
     722:	df 91       	pop	r29
     724:	cf 91       	pop	r28
     726:	08 95       	ret

00000728 <_Z18cmdHandler__io_getv>:
 void cmdHandler__io_get(){}
     728:	08 95       	ret

0000072a <_Z25cmdHandler__io_get_configv>:
 void cmdHandler__io_get_config(){}
     72a:	08 95       	ret

0000072c <_Z29cmdHandler__io_get_config_io0v>:
 void cmdHandler__io_get_config_io0(){}
     72c:	08 95       	ret

0000072e <_Z29cmdHandler__io_get_config_io0i>:
 void cmdHandler__io_get_config_io0(int16_t pin){
     72e:	08 95       	ret

00000730 <_Z29cmdHandler__io_get_config_io1v>:
	
 }
 void cmdHandler__io_get_config_io1(){}
     730:	08 95       	ret

00000732 <_Z29cmdHandler__io_get_config_io1j>:
 void cmdHandler__io_get_config_io1(uint16_t pin){}
     732:	08 95       	ret

00000734 <_Z29cmdHandler__io_get_config_io2v>:
 void cmdHandler__io_get_config_io2(){}
     734:	08 95       	ret

00000736 <_Z29cmdHandler__io_get_config_io2j>:
 void cmdHandler__io_get_config_io2(uint16_t pin){}
     736:	08 95       	ret

00000738 <_Z29cmdHandler__io_get_config_io3v>:
 void cmdHandler__io_get_config_io3(){}
     738:	08 95       	ret

0000073a <_Z29cmdHandler__io_get_config_io3j>:
 void cmdHandler__io_get_config_io3(uint16_t pin){}
     73a:	08 95       	ret

0000073c <_Z30cmdHandler__io_get_config_adc0v>:
 void cmdHandler__io_get_config_adc0(){}
     73c:	08 95       	ret

0000073e <_Z30cmdHandler__io_get_config_adc0j>:
 void cmdHandler__io_get_config_adc0(uint16_t pin){}
     73e:	08 95       	ret

00000740 <_Z30cmdHandler__io_get_config_adc1v>:
 void cmdHandler__io_get_config_adc1(){}
     740:	08 95       	ret

00000742 <_Z30cmdHandler__io_get_config_adc1j>:
 void cmdHandler__io_get_config_adc1(uint16_t pin){}
     742:	08 95       	ret

00000744 <_Z24cmdHandler__io_get_valuev>:
 void cmdHandler__io_get_value(){
     744:	08 95       	ret

00000746 <_Z28cmdHandler__io_get_value_io0v>:

 }
void cmdHandler__io_get_value_io0(){
     746:	1f 93       	push	r17
     748:	cf 93       	push	r28
     74a:	df 93       	push	r29
     74c:	c0 e0       	ldi	r28, 0x00	; 0
     74e:	d0 e0       	ldi	r29, 0x00	; 0
	uint8_t tempuint=0;
     750:	10 e0       	ldi	r17, 0x00	; 0
	for(uint8_t i=0;i<8;i++){
		if(io0->pin[i]->get()){
     752:	e0 91 72 03 	lds	r30, 0x0372	; 0x800372 <io0>
     756:	f0 91 73 03 	lds	r31, 0x0373	; 0x800373 <io0+0x1>
     75a:	9e 01       	movw	r18, r28
     75c:	22 0f       	add	r18, r18
     75e:	33 1f       	adc	r19, r19
     760:	e2 0f       	add	r30, r18
     762:	f3 1f       	adc	r31, r19
     764:	80 81       	ld	r24, Z
     766:	91 81       	ldd	r25, Z+1	; 0x01
     768:	d1 d5       	rcall	.+2978   	; 0x130c <_ZN6io_pin3getEv>
     76a:	81 11       	cpse	r24, r1
			tempuint|=128;
     76c:	10 68       	ori	r17, 0x80	; 128
		}
		if(i<7){
     76e:	c7 30       	cpi	r28, 0x07	; 7
     770:	08 f4       	brcc	.+2      	; 0x774 <_Z28cmdHandler__io_get_value_io0v+0x2e>
			tempuint=tempuint>>1;
     772:	16 95       	lsr	r17
     774:	21 96       	adiw	r28, 0x01	; 1
 void cmdHandler__io_get_value(){

 }
void cmdHandler__io_get_value_io0(){
	uint8_t tempuint=0;
	for(uint8_t i=0;i<8;i++){
     776:	c8 30       	cpi	r28, 0x08	; 8
     778:	d1 05       	cpc	r29, r1
     77a:	59 f7       	brne	.-42     	; 0x752 <_Z28cmdHandler__io_get_value_io0v+0xc>
		}
		if(i<7){
			tempuint=tempuint>>1;
		}
	}
	list_array_uint8_t_element* temp = intToCharArray((int16_t)tempuint);
     77c:	81 2f       	mov	r24, r17
     77e:	90 e0       	ldi	r25, 0x00	; 0
     780:	64 d5       	rcall	.+2760   	; 0x124a <_Z14intToCharArrayi>
     782:	ec 01       	movw	r28, r24
	serial_out0(temp->data, temp->data_size);
     784:	6a 81       	ldd	r22, Y+2	; 0x02
     786:	88 81       	ld	r24, Y
     788:	99 81       	ldd	r25, Y+1	; 0x01
     78a:	0e 94 63 0e 	call	0x1cc6	; 0x1cc6 <_Z11serial_out0Phh>
	serial_out0(ack);
     78e:	8a e0       	ldi	r24, 0x0A	; 10
     790:	0e 94 12 0e 	call	0x1c24	; 0x1c24 <_Z11serial_out0h>
	delete temp;
     794:	20 97       	sbiw	r28, 0x00	; 0
     796:	29 f0       	breq	.+10     	; 0x7a2 <_Z28cmdHandler__io_get_value_io0v+0x5c>
     798:	ce 01       	movw	r24, r28
     79a:	c7 d6       	rcall	.+3470   	; 0x152a <_ZN26list_array_uint8_t_elementD1Ev>
     79c:	ce 01       	movw	r24, r28
     79e:	0e 94 56 0d 	call	0x1aac	; 0x1aac <_ZdlPv>
}
     7a2:	df 91       	pop	r29
     7a4:	cf 91       	pop	r28
     7a6:	1f 91       	pop	r17
     7a8:	08 95       	ret

000007aa <_Z28cmdHandler__io_get_value_io0j>:
void cmdHandler__io_get_value_io0(uint16_t pin){
	if(pin >= 0 && pin <= 7){
     7aa:	88 30       	cpi	r24, 0x08	; 8
     7ac:	91 05       	cpc	r25, r1
     7ae:	b8 f4       	brcc	.+46     	; 0x7de <_Z28cmdHandler__io_get_value_io0j+0x34>
		if(io0->pin[pin]->get()){
     7b0:	e0 91 72 03 	lds	r30, 0x0372	; 0x800372 <io0>
     7b4:	f0 91 73 03 	lds	r31, 0x0373	; 0x800373 <io0+0x1>
     7b8:	88 0f       	add	r24, r24
     7ba:	99 1f       	adc	r25, r25
     7bc:	e8 0f       	add	r30, r24
     7be:	f9 1f       	adc	r31, r25
     7c0:	80 81       	ld	r24, Z
     7c2:	91 81       	ldd	r25, Z+1	; 0x01
     7c4:	a3 d5       	rcall	.+2886   	; 0x130c <_ZN6io_pin3getEv>
     7c6:	88 23       	and	r24, r24
     7c8:	21 f0       	breq	.+8      	; 0x7d2 <_Z28cmdHandler__io_get_value_io0j+0x28>
			serial_out0('1');
     7ca:	81 e3       	ldi	r24, 0x31	; 49
     7cc:	0e 94 12 0e 	call	0x1c24	; 0x1c24 <_Z11serial_out0h>
     7d0:	03 c0       	rjmp	.+6      	; 0x7d8 <_Z28cmdHandler__io_get_value_io0j+0x2e>
		}else{
			serial_out0('0');
     7d2:	80 e3       	ldi	r24, 0x30	; 48
     7d4:	0e 94 12 0e 	call	0x1c24	; 0x1c24 <_Z11serial_out0h>
		}
		serial_out0(ack);
     7d8:	8a e0       	ldi	r24, 0x0A	; 10
     7da:	0c 94 12 0e 	jmp	0x1c24	; 0x1c24 <_Z11serial_out0h>
     7de:	08 95       	ret

000007e0 <_Z28cmdHandler__io_get_value_io1v>:
	}
}
void cmdHandler__io_get_value_io1(){
     7e0:	1f 93       	push	r17
     7e2:	cf 93       	push	r28
     7e4:	df 93       	push	r29
     7e6:	c0 e0       	ldi	r28, 0x00	; 0
     7e8:	d0 e0       	ldi	r29, 0x00	; 0
	uint8_t tempuint=0;
     7ea:	10 e0       	ldi	r17, 0x00	; 0
	for(uint8_t i=0;i<8;i++){
		if(io1->pin[i]->get()){
     7ec:	e0 91 70 03 	lds	r30, 0x0370	; 0x800370 <io1>
     7f0:	f0 91 71 03 	lds	r31, 0x0371	; 0x800371 <io1+0x1>
     7f4:	9e 01       	movw	r18, r28
     7f6:	22 0f       	add	r18, r18
     7f8:	33 1f       	adc	r19, r19
     7fa:	e2 0f       	add	r30, r18
     7fc:	f3 1f       	adc	r31, r19
     7fe:	80 81       	ld	r24, Z
     800:	91 81       	ldd	r25, Z+1	; 0x01
     802:	84 d5       	rcall	.+2824   	; 0x130c <_ZN6io_pin3getEv>
     804:	81 11       	cpse	r24, r1
			tempuint|=128;
     806:	10 68       	ori	r17, 0x80	; 128
		}
		if(i<7){
     808:	c7 30       	cpi	r28, 0x07	; 7
     80a:	08 f4       	brcc	.+2      	; 0x80e <_Z28cmdHandler__io_get_value_io1v+0x2e>
			tempuint=tempuint>>1;
     80c:	16 95       	lsr	r17
     80e:	21 96       	adiw	r28, 0x01	; 1
		serial_out0(ack);
	}
}
void cmdHandler__io_get_value_io1(){
	uint8_t tempuint=0;
	for(uint8_t i=0;i<8;i++){
     810:	c8 30       	cpi	r28, 0x08	; 8
     812:	d1 05       	cpc	r29, r1
     814:	59 f7       	brne	.-42     	; 0x7ec <_Z28cmdHandler__io_get_value_io1v+0xc>
		}
		if(i<7){
			tempuint=tempuint>>1;
		}
	}
	list_array_uint8_t_element* temp = intToCharArray((int16_t)tempuint);
     816:	81 2f       	mov	r24, r17
     818:	90 e0       	ldi	r25, 0x00	; 0
     81a:	17 d5       	rcall	.+2606   	; 0x124a <_Z14intToCharArrayi>
     81c:	ec 01       	movw	r28, r24
	serial_out0(temp->data, temp->data_size);
     81e:	6a 81       	ldd	r22, Y+2	; 0x02
     820:	88 81       	ld	r24, Y
     822:	99 81       	ldd	r25, Y+1	; 0x01
     824:	0e 94 63 0e 	call	0x1cc6	; 0x1cc6 <_Z11serial_out0Phh>
	serial_out0(ack);
     828:	8a e0       	ldi	r24, 0x0A	; 10
     82a:	0e 94 12 0e 	call	0x1c24	; 0x1c24 <_Z11serial_out0h>
	delete temp;
     82e:	20 97       	sbiw	r28, 0x00	; 0
     830:	29 f0       	breq	.+10     	; 0x83c <_Z28cmdHandler__io_get_value_io1v+0x5c>
     832:	ce 01       	movw	r24, r28
     834:	7a d6       	rcall	.+3316   	; 0x152a <_ZN26list_array_uint8_t_elementD1Ev>
     836:	ce 01       	movw	r24, r28
     838:	0e 94 56 0d 	call	0x1aac	; 0x1aac <_ZdlPv>
}
     83c:	df 91       	pop	r29
     83e:	cf 91       	pop	r28
     840:	1f 91       	pop	r17
     842:	08 95       	ret

00000844 <_Z28cmdHandler__io_get_value_io1j>:
void cmdHandler__io_get_value_io1(uint16_t pin){
	if(pin >= 0 && pin <= 7){
     844:	88 30       	cpi	r24, 0x08	; 8
     846:	91 05       	cpc	r25, r1
     848:	b8 f4       	brcc	.+46     	; 0x878 <_Z28cmdHandler__io_get_value_io1j+0x34>
		if(io1->pin[pin]->get()){
     84a:	e0 91 70 03 	lds	r30, 0x0370	; 0x800370 <io1>
     84e:	f0 91 71 03 	lds	r31, 0x0371	; 0x800371 <io1+0x1>
     852:	88 0f       	add	r24, r24
     854:	99 1f       	adc	r25, r25
     856:	e8 0f       	add	r30, r24
     858:	f9 1f       	adc	r31, r25
     85a:	80 81       	ld	r24, Z
     85c:	91 81       	ldd	r25, Z+1	; 0x01
     85e:	56 d5       	rcall	.+2732   	; 0x130c <_ZN6io_pin3getEv>
     860:	88 23       	and	r24, r24
     862:	21 f0       	breq	.+8      	; 0x86c <_Z28cmdHandler__io_get_value_io1j+0x28>
			serial_out0('1');
     864:	81 e3       	ldi	r24, 0x31	; 49
     866:	0e 94 12 0e 	call	0x1c24	; 0x1c24 <_Z11serial_out0h>
     86a:	03 c0       	rjmp	.+6      	; 0x872 <_Z28cmdHandler__io_get_value_io1j+0x2e>
		}else{
			serial_out0('0');
     86c:	80 e3       	ldi	r24, 0x30	; 48
     86e:	0e 94 12 0e 	call	0x1c24	; 0x1c24 <_Z11serial_out0h>
		}
		serial_out0(ack);
     872:	8a e0       	ldi	r24, 0x0A	; 10
     874:	0c 94 12 0e 	jmp	0x1c24	; 0x1c24 <_Z11serial_out0h>
     878:	08 95       	ret

0000087a <_Z28cmdHandler__io_get_value_io2v>:
	}
}
void cmdHandler__io_get_value_io2(){
     87a:	1f 93       	push	r17
     87c:	cf 93       	push	r28
     87e:	df 93       	push	r29
     880:	c0 e0       	ldi	r28, 0x00	; 0
     882:	d0 e0       	ldi	r29, 0x00	; 0
	uint8_t tempuint=0;
     884:	10 e0       	ldi	r17, 0x00	; 0
	for(uint8_t i=0;i<8;i++){
		if(io2->pin[i]->get()){
     886:	e0 91 6e 03 	lds	r30, 0x036E	; 0x80036e <io2>
     88a:	f0 91 6f 03 	lds	r31, 0x036F	; 0x80036f <io2+0x1>
     88e:	9e 01       	movw	r18, r28
     890:	22 0f       	add	r18, r18
     892:	33 1f       	adc	r19, r19
     894:	e2 0f       	add	r30, r18
     896:	f3 1f       	adc	r31, r19
     898:	80 81       	ld	r24, Z
     89a:	91 81       	ldd	r25, Z+1	; 0x01
     89c:	37 d5       	rcall	.+2670   	; 0x130c <_ZN6io_pin3getEv>
     89e:	81 11       	cpse	r24, r1
			tempuint|=128;
     8a0:	10 68       	ori	r17, 0x80	; 128
		}
		if(i<7){
     8a2:	c7 30       	cpi	r28, 0x07	; 7
     8a4:	08 f4       	brcc	.+2      	; 0x8a8 <_Z28cmdHandler__io_get_value_io2v+0x2e>
			tempuint=tempuint>>1;
     8a6:	16 95       	lsr	r17
     8a8:	21 96       	adiw	r28, 0x01	; 1
		serial_out0(ack);
	}
}
void cmdHandler__io_get_value_io2(){
	uint8_t tempuint=0;
	for(uint8_t i=0;i<8;i++){
     8aa:	c8 30       	cpi	r28, 0x08	; 8
     8ac:	d1 05       	cpc	r29, r1
     8ae:	59 f7       	brne	.-42     	; 0x886 <_Z28cmdHandler__io_get_value_io2v+0xc>
		if(i<7){
			tempuint=tempuint>>1;
		}
		
	}
	list_array_uint8_t_element* temp = intToCharArray((int16_t)tempuint);
     8b0:	81 2f       	mov	r24, r17
     8b2:	90 e0       	ldi	r25, 0x00	; 0
     8b4:	ca d4       	rcall	.+2452   	; 0x124a <_Z14intToCharArrayi>
     8b6:	ec 01       	movw	r28, r24
	serial_out0(temp->data, temp->data_size);
     8b8:	6a 81       	ldd	r22, Y+2	; 0x02
     8ba:	88 81       	ld	r24, Y
     8bc:	99 81       	ldd	r25, Y+1	; 0x01
     8be:	0e 94 63 0e 	call	0x1cc6	; 0x1cc6 <_Z11serial_out0Phh>
	serial_out0(ack);
     8c2:	8a e0       	ldi	r24, 0x0A	; 10
     8c4:	0e 94 12 0e 	call	0x1c24	; 0x1c24 <_Z11serial_out0h>
	delete temp;
     8c8:	20 97       	sbiw	r28, 0x00	; 0
     8ca:	29 f0       	breq	.+10     	; 0x8d6 <_Z28cmdHandler__io_get_value_io2v+0x5c>
     8cc:	ce 01       	movw	r24, r28
     8ce:	2d d6       	rcall	.+3162   	; 0x152a <_ZN26list_array_uint8_t_elementD1Ev>
     8d0:	ce 01       	movw	r24, r28
     8d2:	0e 94 56 0d 	call	0x1aac	; 0x1aac <_ZdlPv>
}
     8d6:	df 91       	pop	r29
     8d8:	cf 91       	pop	r28
     8da:	1f 91       	pop	r17
     8dc:	08 95       	ret

000008de <_Z28cmdHandler__io_get_value_io2j>:
void cmdHandler__io_get_value_io2(uint16_t pin){
	if(pin >= 0 && pin <= 7){
     8de:	88 30       	cpi	r24, 0x08	; 8
     8e0:	91 05       	cpc	r25, r1
     8e2:	b8 f4       	brcc	.+46     	; 0x912 <_Z28cmdHandler__io_get_value_io2j+0x34>
		if(io2->pin[pin]->get()){
     8e4:	e0 91 6e 03 	lds	r30, 0x036E	; 0x80036e <io2>
     8e8:	f0 91 6f 03 	lds	r31, 0x036F	; 0x80036f <io2+0x1>
     8ec:	88 0f       	add	r24, r24
     8ee:	99 1f       	adc	r25, r25
     8f0:	e8 0f       	add	r30, r24
     8f2:	f9 1f       	adc	r31, r25
     8f4:	80 81       	ld	r24, Z
     8f6:	91 81       	ldd	r25, Z+1	; 0x01
     8f8:	09 d5       	rcall	.+2578   	; 0x130c <_ZN6io_pin3getEv>
     8fa:	88 23       	and	r24, r24
     8fc:	21 f0       	breq	.+8      	; 0x906 <_Z28cmdHandler__io_get_value_io2j+0x28>
			serial_out0('1');
     8fe:	81 e3       	ldi	r24, 0x31	; 49
     900:	0e 94 12 0e 	call	0x1c24	; 0x1c24 <_Z11serial_out0h>
     904:	03 c0       	rjmp	.+6      	; 0x90c <_Z28cmdHandler__io_get_value_io2j+0x2e>
		}else{
			serial_out0('0');
     906:	80 e3       	ldi	r24, 0x30	; 48
     908:	0e 94 12 0e 	call	0x1c24	; 0x1c24 <_Z11serial_out0h>
		}
		serial_out0(ack);
     90c:	8a e0       	ldi	r24, 0x0A	; 10
     90e:	0c 94 12 0e 	jmp	0x1c24	; 0x1c24 <_Z11serial_out0h>
     912:	08 95       	ret

00000914 <_Z28cmdHandler__io_get_value_io3v>:
	}
}
void cmdHandler__io_get_value_io3(){
     914:	1f 93       	push	r17
     916:	cf 93       	push	r28
     918:	df 93       	push	r29
     91a:	c0 e0       	ldi	r28, 0x00	; 0
     91c:	d0 e0       	ldi	r29, 0x00	; 0
	uint8_t tempuint=0;
     91e:	10 e0       	ldi	r17, 0x00	; 0
	for(uint8_t i=0;i<8;i++){
		if(io3->pin[i]->get()){
     920:	e0 91 6c 03 	lds	r30, 0x036C	; 0x80036c <__data_end>
     924:	f0 91 6d 03 	lds	r31, 0x036D	; 0x80036d <__data_end+0x1>
     928:	9e 01       	movw	r18, r28
     92a:	22 0f       	add	r18, r18
     92c:	33 1f       	adc	r19, r19
     92e:	e2 0f       	add	r30, r18
     930:	f3 1f       	adc	r31, r19
     932:	80 81       	ld	r24, Z
     934:	91 81       	ldd	r25, Z+1	; 0x01
     936:	ea d4       	rcall	.+2516   	; 0x130c <_ZN6io_pin3getEv>
     938:	81 11       	cpse	r24, r1
			tempuint|=128;
     93a:	10 68       	ori	r17, 0x80	; 128
		}
		if(i<7){
     93c:	c7 30       	cpi	r28, 0x07	; 7
     93e:	08 f4       	brcc	.+2      	; 0x942 <_Z28cmdHandler__io_get_value_io3v+0x2e>
			tempuint=tempuint>>1;
     940:	16 95       	lsr	r17
     942:	21 96       	adiw	r28, 0x01	; 1
		serial_out0(ack);
	}
}
void cmdHandler__io_get_value_io3(){
	uint8_t tempuint=0;
	for(uint8_t i=0;i<8;i++){
     944:	c8 30       	cpi	r28, 0x08	; 8
     946:	d1 05       	cpc	r29, r1
     948:	59 f7       	brne	.-42     	; 0x920 <_Z28cmdHandler__io_get_value_io3v+0xc>
		}
		if(i<7){
			tempuint=tempuint>>1;
		}
	}
	list_array_uint8_t_element* temp = intToCharArray((int16_t)tempuint);
     94a:	81 2f       	mov	r24, r17
     94c:	90 e0       	ldi	r25, 0x00	; 0
     94e:	7d d4       	rcall	.+2298   	; 0x124a <_Z14intToCharArrayi>
     950:	ec 01       	movw	r28, r24
	serial_out0(temp->data, temp->data_size);
     952:	6a 81       	ldd	r22, Y+2	; 0x02
     954:	88 81       	ld	r24, Y
     956:	99 81       	ldd	r25, Y+1	; 0x01
     958:	0e 94 63 0e 	call	0x1cc6	; 0x1cc6 <_Z11serial_out0Phh>
	serial_out0(ack);
     95c:	8a e0       	ldi	r24, 0x0A	; 10
     95e:	0e 94 12 0e 	call	0x1c24	; 0x1c24 <_Z11serial_out0h>
	delete temp;
     962:	20 97       	sbiw	r28, 0x00	; 0
     964:	29 f0       	breq	.+10     	; 0x970 <_Z28cmdHandler__io_get_value_io3v+0x5c>
     966:	ce 01       	movw	r24, r28
     968:	e0 d5       	rcall	.+3008   	; 0x152a <_ZN26list_array_uint8_t_elementD1Ev>
     96a:	ce 01       	movw	r24, r28
     96c:	0e 94 56 0d 	call	0x1aac	; 0x1aac <_ZdlPv>
}
     970:	df 91       	pop	r29
     972:	cf 91       	pop	r28
     974:	1f 91       	pop	r17
     976:	08 95       	ret

00000978 <_Z28cmdHandler__io_get_value_io3j>:
void cmdHandler__io_get_value_io3(uint16_t pin){
	if(pin >= 0 && pin <= 7){
     978:	88 30       	cpi	r24, 0x08	; 8
     97a:	91 05       	cpc	r25, r1
     97c:	b8 f4       	brcc	.+46     	; 0x9ac <_Z28cmdHandler__io_get_value_io3j+0x34>
		if(io3->pin[pin]->get()){
     97e:	e0 91 6c 03 	lds	r30, 0x036C	; 0x80036c <__data_end>
     982:	f0 91 6d 03 	lds	r31, 0x036D	; 0x80036d <__data_end+0x1>
     986:	88 0f       	add	r24, r24
     988:	99 1f       	adc	r25, r25
     98a:	e8 0f       	add	r30, r24
     98c:	f9 1f       	adc	r31, r25
     98e:	80 81       	ld	r24, Z
     990:	91 81       	ldd	r25, Z+1	; 0x01
     992:	bc d4       	rcall	.+2424   	; 0x130c <_ZN6io_pin3getEv>
     994:	88 23       	and	r24, r24
     996:	21 f0       	breq	.+8      	; 0x9a0 <_Z28cmdHandler__io_get_value_io3j+0x28>
			serial_out0('1');
     998:	81 e3       	ldi	r24, 0x31	; 49
     99a:	0e 94 12 0e 	call	0x1c24	; 0x1c24 <_Z11serial_out0h>
     99e:	03 c0       	rjmp	.+6      	; 0x9a6 <_Z28cmdHandler__io_get_value_io3j+0x2e>
		}else{
			serial_out0('0');
     9a0:	80 e3       	ldi	r24, 0x30	; 48
     9a2:	0e 94 12 0e 	call	0x1c24	; 0x1c24 <_Z11serial_out0h>
		}
		serial_out0(ack);
     9a6:	8a e0       	ldi	r24, 0x0A	; 10
     9a8:	0c 94 12 0e 	jmp	0x1c24	; 0x1c24 <_Z11serial_out0h>
     9ac:	08 95       	ret

000009ae <_Z29cmdHandler__io_get_value_adc0v>:
	}
}
void cmdHandler__io_get_value_adc0(){}
     9ae:	08 95       	ret

000009b0 <_Z29cmdHandler__io_get_value_adc0j>:
void cmdHandler__io_get_value_adc0(uint16_t pin){
     9b0:	cf 93       	push	r28
     9b2:	df 93       	push	r29
	if(pin >= 0 && pin <= 7){
     9b4:	88 30       	cpi	r24, 0x08	; 8
     9b6:	91 05       	cpc	r25, r1
     9b8:	a8 f4       	brcc	.+42     	; 0x9e4 <_Z29cmdHandler__io_get_value_adc0j+0x34>
		list_array_uint8_t_element* temp = intToCharArray(myADC.getoutput(pin));
     9ba:	68 2f       	mov	r22, r24
     9bc:	85 e7       	ldi	r24, 0x75	; 117
     9be:	93 e0       	ldi	r25, 0x03	; 3
     9c0:	1a dd       	rcall	.-1484   	; 0x3f6 <_ZN22AnalogDigitalConverter9getoutputEh>
     9c2:	43 d4       	rcall	.+2182   	; 0x124a <_Z14intToCharArrayi>
     9c4:	ec 01       	movw	r28, r24
		serial_out0(temp->data, temp->data_size);
     9c6:	6a 81       	ldd	r22, Y+2	; 0x02
     9c8:	88 81       	ld	r24, Y
     9ca:	99 81       	ldd	r25, Y+1	; 0x01
     9cc:	0e 94 63 0e 	call	0x1cc6	; 0x1cc6 <_Z11serial_out0Phh>
		serial_out0(ack);
     9d0:	8a e0       	ldi	r24, 0x0A	; 10
     9d2:	0e 94 12 0e 	call	0x1c24	; 0x1c24 <_Z11serial_out0h>
		delete temp;
     9d6:	20 97       	sbiw	r28, 0x00	; 0
     9d8:	29 f0       	breq	.+10     	; 0x9e4 <_Z29cmdHandler__io_get_value_adc0j+0x34>
     9da:	ce 01       	movw	r24, r28
     9dc:	a6 d5       	rcall	.+2892   	; 0x152a <_ZN26list_array_uint8_t_elementD1Ev>
     9de:	ce 01       	movw	r24, r28
     9e0:	0e 94 56 0d 	call	0x1aac	; 0x1aac <_ZdlPv>
	}
}
     9e4:	df 91       	pop	r29
     9e6:	cf 91       	pop	r28
     9e8:	08 95       	ret

000009ea <_Z29cmdHandler__io_get_value_adc1v>:
void cmdHandler__io_get_value_adc1(){}
     9ea:	08 95       	ret

000009ec <_Z29cmdHandler__io_get_value_adc1j>:
void cmdHandler__io_get_value_adc1(uint16_t pin){
     9ec:	cf 93       	push	r28
     9ee:	df 93       	push	r29
		if(pin >= 0 && pin <= 7){
     9f0:	88 30       	cpi	r24, 0x08	; 8
     9f2:	91 05       	cpc	r25, r1
     9f4:	b0 f4       	brcc	.+44     	; 0xa22 <_Z29cmdHandler__io_get_value_adc1j+0x36>
			list_array_uint8_t_element* temp = intToCharArray(myADC.getoutput(pin+8));
     9f6:	68 e0       	ldi	r22, 0x08	; 8
     9f8:	68 0f       	add	r22, r24
     9fa:	85 e7       	ldi	r24, 0x75	; 117
     9fc:	93 e0       	ldi	r25, 0x03	; 3
     9fe:	fb dc       	rcall	.-1546   	; 0x3f6 <_ZN22AnalogDigitalConverter9getoutputEh>
     a00:	24 d4       	rcall	.+2120   	; 0x124a <_Z14intToCharArrayi>
     a02:	ec 01       	movw	r28, r24
			serial_out0(temp->data, temp->data_size);
     a04:	6a 81       	ldd	r22, Y+2	; 0x02
     a06:	88 81       	ld	r24, Y
     a08:	99 81       	ldd	r25, Y+1	; 0x01
     a0a:	0e 94 63 0e 	call	0x1cc6	; 0x1cc6 <_Z11serial_out0Phh>
			serial_out0(ack);
     a0e:	8a e0       	ldi	r24, 0x0A	; 10
     a10:	0e 94 12 0e 	call	0x1c24	; 0x1c24 <_Z11serial_out0h>
			delete temp;
     a14:	20 97       	sbiw	r28, 0x00	; 0
     a16:	29 f0       	breq	.+10     	; 0xa22 <_Z29cmdHandler__io_get_value_adc1j+0x36>
     a18:	ce 01       	movw	r24, r28
     a1a:	87 d5       	rcall	.+2830   	; 0x152a <_ZN26list_array_uint8_t_elementD1Ev>
     a1c:	ce 01       	movw	r24, r28
     a1e:	0e 94 56 0d 	call	0x1aac	; 0x1aac <_ZdlPv>
		}
     a22:	df 91       	pop	r29
     a24:	cf 91       	pop	r28
     a26:	08 95       	ret

00000a28 <_ZN9cmdParser15set_parser_flagEv>:
void cmdParser::set_parser_flag(){
	parser_flag=true;
}
bool cmdParser::get_parser_flag(){
	return parser_flag;
}
     a28:	21 e0       	ldi	r18, 0x01	; 1
     a2a:	fc 01       	movw	r30, r24
     a2c:	20 83       	st	Z, r18
     a2e:	08 95       	ret

00000a30 <_ZN9cmdParser5matchEP26list_array_uint8_t_elementPKhh>:
bool cmdParser::match(list_array_uint8_t_element* cmd,const uint8_t* B, uint8_t sizeB){
     a30:	cf 93       	push	r28
     a32:	df 93       	push	r29
	if(cmd->data_size!=sizeB){
     a34:	fb 01       	movw	r30, r22
     a36:	92 81       	ldd	r25, Z+2	; 0x02
     a38:	92 13       	cpse	r25, r18
     a3a:	1d c0       	rjmp	.+58     	; 0xa76 <_ZN9cmdParser5matchEP26list_array_uint8_t_elementPKhh+0x46>
		return false;
	}
	uint8_t* A=cmd->data;
     a3c:	c0 81       	ld	r28, Z
     a3e:	d1 81       	ldd	r29, Z+1	; 0x01
	for(uint8_t i=0;i<sizeB;i++){
     a40:	99 23       	and	r25, r25
     a42:	d9 f0       	breq	.+54     	; 0xa7a <_ZN9cmdParser5matchEP26list_array_uint8_t_elementPKhh+0x4a>
		if(A[i]!=pgm_read_byte(B+i)){
     a44:	fa 01       	movw	r30, r20
     a46:	24 91       	lpm	r18, Z
     a48:	88 81       	ld	r24, Y
     a4a:	82 13       	cpse	r24, r18
     a4c:	18 c0       	rjmp	.+48     	; 0xa7e <_ZN9cmdParser5matchEP26list_array_uint8_t_elementPKhh+0x4e>
     a4e:	de 01       	movw	r26, r28
     a50:	11 96       	adiw	r26, 0x01	; 1
     a52:	31 96       	adiw	r30, 0x01	; 1
     a54:	91 50       	subi	r25, 0x01	; 1
     a56:	89 2f       	mov	r24, r25
     a58:	90 e0       	ldi	r25, 0x00	; 0
     a5a:	01 96       	adiw	r24, 0x01	; 1
     a5c:	8c 0f       	add	r24, r28
     a5e:	9d 1f       	adc	r25, r29
     a60:	05 c0       	rjmp	.+10     	; 0xa6c <_ZN9cmdParser5matchEP26list_array_uint8_t_elementPKhh+0x3c>
     a62:	3d 91       	ld	r19, X+
     a64:	24 91       	lpm	r18, Z
     a66:	31 96       	adiw	r30, 0x01	; 1
     a68:	32 13       	cpse	r19, r18
     a6a:	0b c0       	rjmp	.+22     	; 0xa82 <_ZN9cmdParser5matchEP26list_array_uint8_t_elementPKhh+0x52>
bool cmdParser::match(list_array_uint8_t_element* cmd,const uint8_t* B, uint8_t sizeB){
	if(cmd->data_size!=sizeB){
		return false;
	}
	uint8_t* A=cmd->data;
	for(uint8_t i=0;i<sizeB;i++){
     a6c:	a8 17       	cp	r26, r24
     a6e:	b9 07       	cpc	r27, r25
     a70:	c1 f7       	brne	.-16     	; 0xa62 <_ZN9cmdParser5matchEP26list_array_uint8_t_elementPKhh+0x32>
		if(A[i]!=pgm_read_byte(B+i)){
			return false;
		}
	}
	return true;
     a72:	81 e0       	ldi	r24, 0x01	; 1
     a74:	07 c0       	rjmp	.+14     	; 0xa84 <_ZN9cmdParser5matchEP26list_array_uint8_t_elementPKhh+0x54>
bool cmdParser::get_parser_flag(){
	return parser_flag;
}
bool cmdParser::match(list_array_uint8_t_element* cmd,const uint8_t* B, uint8_t sizeB){
	if(cmd->data_size!=sizeB){
		return false;
     a76:	80 e0       	ldi	r24, 0x00	; 0
     a78:	05 c0       	rjmp	.+10     	; 0xa84 <_ZN9cmdParser5matchEP26list_array_uint8_t_elementPKhh+0x54>
	for(uint8_t i=0;i<sizeB;i++){
		if(A[i]!=pgm_read_byte(B+i)){
			return false;
		}
	}
	return true;
     a7a:	81 e0       	ldi	r24, 0x01	; 1
     a7c:	03 c0       	rjmp	.+6      	; 0xa84 <_ZN9cmdParser5matchEP26list_array_uint8_t_elementPKhh+0x54>
		return false;
	}
	uint8_t* A=cmd->data;
	for(uint8_t i=0;i<sizeB;i++){
		if(A[i]!=pgm_read_byte(B+i)){
			return false;
     a7e:	80 e0       	ldi	r24, 0x00	; 0
     a80:	01 c0       	rjmp	.+2      	; 0xa84 <_ZN9cmdParser5matchEP26list_array_uint8_t_elementPKhh+0x54>
     a82:	80 e0       	ldi	r24, 0x00	; 0
		}
	}
	return true;
}
     a84:	df 91       	pop	r29
     a86:	cf 91       	pop	r28
     a88:	08 95       	ret

00000a8a <_Z14CharArrayToIntP26list_array_uint8_t_element>:
int16_t CharArrayToInt(list_array_uint8_t_element* array){
     a8a:	cf 92       	push	r12
     a8c:	df 92       	push	r13
     a8e:	ef 92       	push	r14
     a90:	ff 92       	push	r15
     a92:	1f 93       	push	r17
     a94:	cf 93       	push	r28
     a96:	df 93       	push	r29
     a98:	fc 01       	movw	r30, r24
int16_t result=0;
	for(uint8_t i=1; i <= array->data_size; i++){
     a9a:	92 81       	ldd	r25, Z+2	; 0x02
     a9c:	99 23       	and	r25, r25
     a9e:	09 f4       	brne	.+2      	; 0xaa2 <_Z14CharArrayToIntP26list_array_uint8_t_element+0x18>
     aa0:	6d c0       	rjmp	.+218    	; 0xb7c <_Z14CharArrayToIntP26list_array_uint8_t_element+0xf2>
		if(array->data[array->data_size-i]=='-'){
     aa2:	01 90       	ld	r0, Z+
     aa4:	f0 81       	ld	r31, Z
     aa6:	e0 2d       	mov	r30, r0
     aa8:	81 e0       	ldi	r24, 0x01	; 1
     aaa:	40 e0       	ldi	r20, 0x00	; 0
     aac:	50 e0       	ldi	r21, 0x00	; 0
     aae:	69 2f       	mov	r22, r25
     ab0:	70 e0       	ldi	r23, 0x00	; 0
				}else if(i==3){
					result += (array->data[array->data_size-i] - '0') * 100;
				}else if(i==4){
					result += (array->data[array->data_size-i] - '0') * 1000;
				}else if(i==5){
					result += (array->data[array->data_size-i] - '0') * 10000;
     ab2:	0f 2e       	mov	r0, r31
     ab4:	f0 e1       	ldi	r31, 0x10	; 16
     ab6:	cf 2e       	mov	r12, r31
     ab8:	f7 e2       	ldi	r31, 0x27	; 39
     aba:	df 2e       	mov	r13, r31
     abc:	f0 2d       	mov	r31, r0
				}else if(i==2){
					result += (array->data[array->data_size-i] - '0') * 10;
				}else if(i==3){
					result += (array->data[array->data_size-i] - '0') * 100;
				}else if(i==4){
					result += (array->data[array->data_size-i] - '0') * 1000;
     abe:	a8 ee       	ldi	r26, 0xE8	; 232
     ac0:	b3 e0       	ldi	r27, 0x03	; 3
				if(i==1){
					result += (array->data[array->data_size-i] - '0');
				}else if(i==2){
					result += (array->data[array->data_size-i] - '0') * 10;
				}else if(i==3){
					result += (array->data[array->data_size-i] - '0') * 100;
     ac2:	14 e6       	ldi	r17, 0x64	; 100
	return true;
}
int16_t CharArrayToInt(list_array_uint8_t_element* array){
int16_t result=0;
	for(uint8_t i=1; i <= array->data_size; i++){
		if(array->data[array->data_size-i]=='-'){
     ac4:	9b 01       	movw	r18, r22
     ac6:	28 1b       	sub	r18, r24
     ac8:	31 09       	sbc	r19, r1
     aca:	ef 01       	movw	r28, r30
     acc:	c2 0f       	add	r28, r18
     ace:	d3 1f       	adc	r29, r19
     ad0:	28 81       	ld	r18, Y
     ad2:	2d 32       	cpi	r18, 0x2D	; 45
     ad4:	21 f4       	brne	.+8      	; 0xade <_Z14CharArrayToIntP26list_array_uint8_t_element+0x54>
			result*=-1;
     ad6:	51 95       	neg	r21
     ad8:	41 95       	neg	r20
     ada:	51 09       	sbc	r21, r1
     adc:	4a c0       	rjmp	.+148    	; 0xb72 <_Z14CharArrayToIntP26list_array_uint8_t_element+0xe8>
		}else{
			if(array->data[array->data_size-i]>='0' && array->data[array->data_size-i]<='9'){
     ade:	30 ed       	ldi	r19, 0xD0	; 208
     ae0:	32 0f       	add	r19, r18
     ae2:	3a 30       	cpi	r19, 0x0A	; 10
     ae4:	08 f0       	brcs	.+2      	; 0xae8 <_Z14CharArrayToIntP26list_array_uint8_t_element+0x5e>
     ae6:	45 c0       	rjmp	.+138    	; 0xb72 <_Z14CharArrayToIntP26list_array_uint8_t_element+0xe8>
				if(i==1){
     ae8:	81 30       	cpi	r24, 0x01	; 1
     aea:	31 f4       	brne	.+12     	; 0xaf8 <_Z14CharArrayToIntP26list_array_uint8_t_element+0x6e>
					result += (array->data[array->data_size-i] - '0');
     aec:	30 e0       	ldi	r19, 0x00	; 0
     aee:	20 53       	subi	r18, 0x30	; 48
     af0:	31 09       	sbc	r19, r1
     af2:	42 0f       	add	r20, r18
     af4:	53 1f       	adc	r21, r19
     af6:	3d c0       	rjmp	.+122    	; 0xb72 <_Z14CharArrayToIntP26list_array_uint8_t_element+0xe8>
				}else if(i==2){
     af8:	82 30       	cpi	r24, 0x02	; 2
     afa:	89 f4       	brne	.+34     	; 0xb1e <_Z14CharArrayToIntP26list_array_uint8_t_element+0x94>
					result += (array->data[array->data_size-i] - '0') * 10;
     afc:	30 e0       	ldi	r19, 0x00	; 0
     afe:	20 53       	subi	r18, 0x30	; 48
     b00:	31 09       	sbc	r19, r1
     b02:	79 01       	movw	r14, r18
     b04:	ee 0c       	add	r14, r14
     b06:	ff 1c       	adc	r15, r15
     b08:	22 0f       	add	r18, r18
     b0a:	33 1f       	adc	r19, r19
     b0c:	22 0f       	add	r18, r18
     b0e:	33 1f       	adc	r19, r19
     b10:	22 0f       	add	r18, r18
     b12:	33 1f       	adc	r19, r19
     b14:	2e 0d       	add	r18, r14
     b16:	3f 1d       	adc	r19, r15
     b18:	42 0f       	add	r20, r18
     b1a:	53 1f       	adc	r21, r19
     b1c:	2a c0       	rjmp	.+84     	; 0xb72 <_Z14CharArrayToIntP26list_array_uint8_t_element+0xe8>
				}else if(i==3){
     b1e:	83 30       	cpi	r24, 0x03	; 3
     b20:	59 f4       	brne	.+22     	; 0xb38 <_Z14CharArrayToIntP26list_array_uint8_t_element+0xae>
					result += (array->data[array->data_size-i] - '0') * 100;
     b22:	30 e0       	ldi	r19, 0x00	; 0
     b24:	20 53       	subi	r18, 0x30	; 48
     b26:	31 09       	sbc	r19, r1
     b28:	12 9f       	mul	r17, r18
     b2a:	70 01       	movw	r14, r0
     b2c:	13 9f       	mul	r17, r19
     b2e:	f0 0c       	add	r15, r0
     b30:	11 24       	eor	r1, r1
     b32:	4e 0d       	add	r20, r14
     b34:	5f 1d       	adc	r21, r15
     b36:	1d c0       	rjmp	.+58     	; 0xb72 <_Z14CharArrayToIntP26list_array_uint8_t_element+0xe8>
				}else if(i==4){
     b38:	84 30       	cpi	r24, 0x04	; 4
     b3a:	69 f4       	brne	.+26     	; 0xb56 <_Z14CharArrayToIntP26list_array_uint8_t_element+0xcc>
					result += (array->data[array->data_size-i] - '0') * 1000;
     b3c:	30 e0       	ldi	r19, 0x00	; 0
     b3e:	20 53       	subi	r18, 0x30	; 48
     b40:	31 09       	sbc	r19, r1
     b42:	2a 9f       	mul	r18, r26
     b44:	70 01       	movw	r14, r0
     b46:	2b 9f       	mul	r18, r27
     b48:	f0 0c       	add	r15, r0
     b4a:	3a 9f       	mul	r19, r26
     b4c:	f0 0c       	add	r15, r0
     b4e:	11 24       	eor	r1, r1
     b50:	4e 0d       	add	r20, r14
     b52:	5f 1d       	adc	r21, r15
     b54:	0e c0       	rjmp	.+28     	; 0xb72 <_Z14CharArrayToIntP26list_array_uint8_t_element+0xe8>
				}else if(i==5){
     b56:	85 30       	cpi	r24, 0x05	; 5
     b58:	b1 f4       	brne	.+44     	; 0xb86 <_Z14CharArrayToIntP26list_array_uint8_t_element+0xfc>
					result += (array->data[array->data_size-i] - '0') * 10000;
     b5a:	30 e0       	ldi	r19, 0x00	; 0
     b5c:	20 53       	subi	r18, 0x30	; 48
     b5e:	31 09       	sbc	r19, r1
     b60:	2c 9d       	mul	r18, r12
     b62:	70 01       	movw	r14, r0
     b64:	2d 9d       	mul	r18, r13
     b66:	f0 0c       	add	r15, r0
     b68:	3c 9d       	mul	r19, r12
     b6a:	f0 0c       	add	r15, r0
     b6c:	11 24       	eor	r1, r1
     b6e:	4e 0d       	add	r20, r14
     b70:	5f 1d       	adc	r21, r15
	}
	return true;
}
int16_t CharArrayToInt(list_array_uint8_t_element* array){
int16_t result=0;
	for(uint8_t i=1; i <= array->data_size; i++){
     b72:	8f 5f       	subi	r24, 0xFF	; 255
     b74:	98 17       	cp	r25, r24
     b76:	08 f0       	brcs	.+2      	; 0xb7a <_Z14CharArrayToIntP26list_array_uint8_t_element+0xf0>
     b78:	a5 cf       	rjmp	.-182    	; 0xac4 <_Z14CharArrayToIntP26list_array_uint8_t_element+0x3a>
     b7a:	02 c0       	rjmp	.+4      	; 0xb80 <_Z14CharArrayToIntP26list_array_uint8_t_element+0xf6>
		}
	}
	return true;
}
int16_t CharArrayToInt(list_array_uint8_t_element* array){
int16_t result=0;
     b7c:	40 e0       	ldi	r20, 0x00	; 0
     b7e:	50 e0       	ldi	r21, 0x00	; 0
					return 0;
				}
			}
		}
	}
	return result;
     b80:	84 2f       	mov	r24, r20
     b82:	95 2f       	mov	r25, r21
     b84:	02 c0       	rjmp	.+4      	; 0xb8a <_Z14CharArrayToIntP26list_array_uint8_t_element+0x100>
				}else if(i==4){
					result += (array->data[array->data_size-i] - '0') * 1000;
				}else if(i==5){
					result += (array->data[array->data_size-i] - '0') * 10000;
				}else{
					return 0;
     b86:	80 e0       	ldi	r24, 0x00	; 0
     b88:	90 e0       	ldi	r25, 0x00	; 0
				}
			}
		}
	}
	return result;
}
     b8a:	df 91       	pop	r29
     b8c:	cf 91       	pop	r28
     b8e:	1f 91       	pop	r17
     b90:	ff 90       	pop	r15
     b92:	ef 90       	pop	r14
     b94:	df 90       	pop	r13
     b96:	cf 90       	pop	r12
     b98:	08 95       	ret

00000b9a <_ZN9cmdParser7resolveEP26list_array_uint8_t_element>:
	InBufferUart0pointer=0;
	serial_out0(eot);

	serial_out0(rtr);
}
void cmdParser::resolve(list_array_uint8_t_element* cmdlist){
     b9a:	cf 92       	push	r12
     b9c:	df 92       	push	r13
     b9e:	ef 92       	push	r14
     ba0:	ff 92       	push	r15
     ba2:	0f 93       	push	r16
     ba4:	1f 93       	push	r17
     ba6:	cf 93       	push	r28
     ba8:	df 93       	push	r29
     baa:	8c 01       	movw	r16, r24
     bac:	eb 01       	movw	r28, r22
	list_array_uint8_t_element* cmd =cmdlist;
	if(cmdlist->data_size!=0){
     bae:	8a 81       	ldd	r24, Y+2	; 0x02
     bb0:	88 23       	and	r24, r24
     bb2:	09 f4       	brne	.+2      	; 0xbb6 <_ZN9cmdParser7resolveEP26list_array_uint8_t_element+0x1c>
     bb4:	84 c2       	rjmp	.+1288   	; 0x10be <_ZN9cmdParser7resolveEP26list_array_uint8_t_element+0x524>
		if(match(cmd, cmd_io, cmd_io_size)){
     bb6:	22 e0       	ldi	r18, 0x02	; 2
     bb8:	4c e2       	ldi	r20, 0x2C	; 44
     bba:	51 e0       	ldi	r21, 0x01	; 1
     bbc:	c8 01       	movw	r24, r16
     bbe:	38 df       	rcall	.-400    	; 0xa30 <_ZN9cmdParser5matchEP26list_array_uint8_t_elementPKhh>
     bc0:	88 23       	and	r24, r24
     bc2:	09 f4       	brne	.+2      	; 0xbc6 <_ZN9cmdParser7resolveEP26list_array_uint8_t_element+0x2c>
     bc4:	7c c2       	rjmp	.+1272   	; 0x10be <_ZN9cmdParser7resolveEP26list_array_uint8_t_element+0x524>
			if(cmd->post!=nullptr){
     bc6:	ed 80       	ldd	r14, Y+5	; 0x05
     bc8:	fe 80       	ldd	r15, Y+6	; 0x06
     bca:	e1 14       	cp	r14, r1
     bcc:	f1 04       	cpc	r15, r1
     bce:	09 f4       	brne	.+2      	; 0xbd2 <_ZN9cmdParser7resolveEP26list_array_uint8_t_element+0x38>
     bd0:	75 c2       	rjmp	.+1258   	; 0x10bc <_ZN9cmdParser7resolveEP26list_array_uint8_t_element+0x522>
				cmd=cmd->post;
				if(match(cmd, cmd_get, cmd_get_size)){
     bd2:	23 e0       	ldi	r18, 0x03	; 3
     bd4:	4e e2       	ldi	r20, 0x2E	; 46
     bd6:	51 e0       	ldi	r21, 0x01	; 1
     bd8:	b7 01       	movw	r22, r14
     bda:	c8 01       	movw	r24, r16
     bdc:	29 df       	rcall	.-430    	; 0xa30 <_ZN9cmdParser5matchEP26list_array_uint8_t_elementPKhh>
     bde:	88 23       	and	r24, r24
     be0:	09 f4       	brne	.+2      	; 0xbe4 <_ZN9cmdParser7resolveEP26list_array_uint8_t_element+0x4a>
     be2:	74 c1       	rjmp	.+744    	; 0xecc <_ZN9cmdParser7resolveEP26list_array_uint8_t_element+0x332>
					if(cmd->post!=nullptr){
     be4:	f7 01       	movw	r30, r14
     be6:	c5 80       	ldd	r12, Z+5	; 0x05
     be8:	d6 80       	ldd	r13, Z+6	; 0x06
     bea:	c1 14       	cp	r12, r1
     bec:	d1 04       	cpc	r13, r1
     bee:	09 f4       	brne	.+2      	; 0xbf2 <_ZN9cmdParser7resolveEP26list_array_uint8_t_element+0x58>
     bf0:	6a c1       	rjmp	.+724    	; 0xec6 <_ZN9cmdParser7resolveEP26list_array_uint8_t_element+0x32c>
						cmd=cmd->post;
						if(match(cmd, cmd_config, cmd_config_size)){
     bf2:	26 e0       	ldi	r18, 0x06	; 6
     bf4:	46 e2       	ldi	r20, 0x26	; 38
     bf6:	51 e0       	ldi	r21, 0x01	; 1
     bf8:	b6 01       	movw	r22, r12
     bfa:	c8 01       	movw	r24, r16
     bfc:	19 df       	rcall	.-462    	; 0xa30 <_ZN9cmdParser5matchEP26list_array_uint8_t_elementPKhh>
     bfe:	88 23       	and	r24, r24
     c00:	09 f4       	brne	.+2      	; 0xc04 <_ZN9cmdParser7resolveEP26list_array_uint8_t_element+0x6a>
     c02:	ab c0       	rjmp	.+342    	; 0xd5a <_ZN9cmdParser7resolveEP26list_array_uint8_t_element+0x1c0>
							if (cmd->post!=nullptr){
     c04:	f6 01       	movw	r30, r12
     c06:	e5 80       	ldd	r14, Z+5	; 0x05
     c08:	f6 80       	ldd	r15, Z+6	; 0x06
     c0a:	e1 14       	cp	r14, r1
     c0c:	f1 04       	cpc	r15, r1
     c0e:	09 f4       	brne	.+2      	; 0xc12 <_ZN9cmdParser7resolveEP26list_array_uint8_t_element+0x78>
     c10:	a1 c0       	rjmp	.+322    	; 0xd54 <_ZN9cmdParser7resolveEP26list_array_uint8_t_element+0x1ba>
								cmd=cmd->post;
								if(match(cmd,cmd_io0, cmd_io0_size)){
     c12:	23 e0       	ldi	r18, 0x03	; 3
     c14:	4e e1       	ldi	r20, 0x1E	; 30
     c16:	51 e0       	ldi	r21, 0x01	; 1
     c18:	b7 01       	movw	r22, r14
     c1a:	c8 01       	movw	r24, r16
     c1c:	09 df       	rcall	.-494    	; 0xa30 <_ZN9cmdParser5matchEP26list_array_uint8_t_elementPKhh>
     c1e:	88 23       	and	r24, r24
     c20:	99 f0       	breq	.+38     	; 0xc48 <_ZN9cmdParser7resolveEP26list_array_uint8_t_element+0xae>
									if(cmd->post!=nullptr){
     c22:	f7 01       	movw	r30, r14
     c24:	c5 80       	ldd	r12, Z+5	; 0x05
     c26:	d6 80       	ldd	r13, Z+6	; 0x06
     c28:	c1 14       	cp	r12, r1
     c2a:	d1 04       	cpc	r13, r1
     c2c:	51 f0       	breq	.+20     	; 0xc42 <_ZN9cmdParser7resolveEP26list_array_uint8_t_element+0xa8>
										cmd=cmd->post;
										if(cmd->post!=nullptr){
     c2e:	f6 01       	movw	r30, r12
     c30:	85 81       	ldd	r24, Z+5	; 0x05
     c32:	96 81       	ldd	r25, Z+6	; 0x06
     c34:	89 2b       	or	r24, r25
     c36:	39 f4       	brne	.+14     	; 0xc46 <_ZN9cmdParser7resolveEP26list_array_uint8_t_element+0xac>
											
										}else{
											cmdHandler__io_get_config_io0(CharArrayToInt(cmd));
     c38:	c6 01       	movw	r24, r12
     c3a:	27 df       	rcall	.-434    	; 0xa8a <_Z14CharArrayToIntP26list_array_uint8_t_element>
     c3c:	78 dd       	rcall	.-1296   	; 0x72e <_Z29cmdHandler__io_get_config_io0i>
						if(match(cmd, cmd_config, cmd_config_size)){
							if (cmd->post!=nullptr){
								cmd=cmd->post;
								if(match(cmd,cmd_io0, cmd_io0_size)){
									if(cmd->post!=nullptr){
										cmd=cmd->post;
     c3e:	76 01       	movw	r14, r12
     c40:	03 c0       	rjmp	.+6      	; 0xc48 <_ZN9cmdParser7resolveEP26list_array_uint8_t_element+0xae>
										}else{
											cmdHandler__io_get_config_io0(CharArrayToInt(cmd));
											
										}
									}else{
										cmdHandler__io_get_config_io0();
     c42:	74 dd       	rcall	.-1304   	; 0x72c <_Z29cmdHandler__io_get_config_io0v>
     c44:	01 c0       	rjmp	.+2      	; 0xc48 <_ZN9cmdParser7resolveEP26list_array_uint8_t_element+0xae>
						if(match(cmd, cmd_config, cmd_config_size)){
							if (cmd->post!=nullptr){
								cmd=cmd->post;
								if(match(cmd,cmd_io0, cmd_io0_size)){
									if(cmd->post!=nullptr){
										cmd=cmd->post;
     c46:	76 01       	movw	r14, r12
									}else{
										cmdHandler__io_get_config_io0();
										
									}
								}
								if(match(cmd,cmd_io1, cmd_io1_size)){
     c48:	23 e0       	ldi	r18, 0x03	; 3
     c4a:	4b e1       	ldi	r20, 0x1B	; 27
     c4c:	51 e0       	ldi	r21, 0x01	; 1
     c4e:	b7 01       	movw	r22, r14
     c50:	c8 01       	movw	r24, r16
     c52:	ee de       	rcall	.-548    	; 0xa30 <_ZN9cmdParser5matchEP26list_array_uint8_t_elementPKhh>
     c54:	88 23       	and	r24, r24
     c56:	99 f0       	breq	.+38     	; 0xc7e <_ZN9cmdParser7resolveEP26list_array_uint8_t_element+0xe4>
									if(cmd->post!=nullptr){
     c58:	f7 01       	movw	r30, r14
     c5a:	c5 80       	ldd	r12, Z+5	; 0x05
     c5c:	d6 80       	ldd	r13, Z+6	; 0x06
     c5e:	c1 14       	cp	r12, r1
     c60:	d1 04       	cpc	r13, r1
     c62:	51 f0       	breq	.+20     	; 0xc78 <_ZN9cmdParser7resolveEP26list_array_uint8_t_element+0xde>
										cmd=cmd->post;
										if(cmd->post!=nullptr){
     c64:	f6 01       	movw	r30, r12
     c66:	85 81       	ldd	r24, Z+5	; 0x05
     c68:	96 81       	ldd	r25, Z+6	; 0x06
     c6a:	89 2b       	or	r24, r25
     c6c:	39 f4       	brne	.+14     	; 0xc7c <_ZN9cmdParser7resolveEP26list_array_uint8_t_element+0xe2>
											
										}else{
											cmdHandler__io_get_config_io1(CharArrayToInt(cmd));
     c6e:	c6 01       	movw	r24, r12
     c70:	0c df       	rcall	.-488    	; 0xa8a <_Z14CharArrayToIntP26list_array_uint8_t_element>
     c72:	5f dd       	rcall	.-1346   	; 0x732 <_Z29cmdHandler__io_get_config_io1j>
										
									}
								}
								if(match(cmd,cmd_io1, cmd_io1_size)){
									if(cmd->post!=nullptr){
										cmd=cmd->post;
     c74:	76 01       	movw	r14, r12
     c76:	03 c0       	rjmp	.+6      	; 0xc7e <_ZN9cmdParser7resolveEP26list_array_uint8_t_element+0xe4>
										}else{
											cmdHandler__io_get_config_io1(CharArrayToInt(cmd));
											
										}
									}else{
										cmdHandler__io_get_config_io1();
     c78:	5b dd       	rcall	.-1354   	; 0x730 <_Z29cmdHandler__io_get_config_io1v>
     c7a:	01 c0       	rjmp	.+2      	; 0xc7e <_ZN9cmdParser7resolveEP26list_array_uint8_t_element+0xe4>
										
									}
								}
								if(match(cmd,cmd_io1, cmd_io1_size)){
									if(cmd->post!=nullptr){
										cmd=cmd->post;
     c7c:	76 01       	movw	r14, r12
									}else{
										cmdHandler__io_get_config_io1();
										
									}
								}
								if(match(cmd,cmd_io2, cmd_io2_size)){
     c7e:	23 e0       	ldi	r18, 0x03	; 3
     c80:	48 e1       	ldi	r20, 0x18	; 24
     c82:	51 e0       	ldi	r21, 0x01	; 1
     c84:	b7 01       	movw	r22, r14
     c86:	c8 01       	movw	r24, r16
     c88:	d3 de       	rcall	.-602    	; 0xa30 <_ZN9cmdParser5matchEP26list_array_uint8_t_elementPKhh>
     c8a:	88 23       	and	r24, r24
     c8c:	99 f0       	breq	.+38     	; 0xcb4 <_ZN9cmdParser7resolveEP26list_array_uint8_t_element+0x11a>
									if(cmd->post!=nullptr){
     c8e:	f7 01       	movw	r30, r14
     c90:	c5 80       	ldd	r12, Z+5	; 0x05
     c92:	d6 80       	ldd	r13, Z+6	; 0x06
     c94:	c1 14       	cp	r12, r1
     c96:	d1 04       	cpc	r13, r1
     c98:	51 f0       	breq	.+20     	; 0xcae <_ZN9cmdParser7resolveEP26list_array_uint8_t_element+0x114>
										cmd=cmd->post;
										if(cmd->post!=nullptr){
     c9a:	f6 01       	movw	r30, r12
     c9c:	85 81       	ldd	r24, Z+5	; 0x05
     c9e:	96 81       	ldd	r25, Z+6	; 0x06
     ca0:	89 2b       	or	r24, r25
     ca2:	39 f4       	brne	.+14     	; 0xcb2 <_ZN9cmdParser7resolveEP26list_array_uint8_t_element+0x118>
											
										}else{
											cmdHandler__io_get_config_io2(CharArrayToInt(cmd));
     ca4:	c6 01       	movw	r24, r12
     ca6:	f1 de       	rcall	.-542    	; 0xa8a <_Z14CharArrayToIntP26list_array_uint8_t_element>
     ca8:	46 dd       	rcall	.-1396   	; 0x736 <_Z29cmdHandler__io_get_config_io2j>
										
									}
								}
								if(match(cmd,cmd_io2, cmd_io2_size)){
									if(cmd->post!=nullptr){
										cmd=cmd->post;
     caa:	76 01       	movw	r14, r12
     cac:	03 c0       	rjmp	.+6      	; 0xcb4 <_ZN9cmdParser7resolveEP26list_array_uint8_t_element+0x11a>
										}else{
											cmdHandler__io_get_config_io2(CharArrayToInt(cmd));
											
										}
									}else{
										cmdHandler__io_get_config_io2();
     cae:	42 dd       	rcall	.-1404   	; 0x734 <_Z29cmdHandler__io_get_config_io2v>
     cb0:	01 c0       	rjmp	.+2      	; 0xcb4 <_ZN9cmdParser7resolveEP26list_array_uint8_t_element+0x11a>
										
									}
								}
								if(match(cmd,cmd_io2, cmd_io2_size)){
									if(cmd->post!=nullptr){
										cmd=cmd->post;
     cb2:	76 01       	movw	r14, r12
									}else{
										cmdHandler__io_get_config_io2();
										
									}
								}
								if(match(cmd,cmd_io3, cmd_io3_size)){
     cb4:	23 e0       	ldi	r18, 0x03	; 3
     cb6:	45 e1       	ldi	r20, 0x15	; 21
     cb8:	51 e0       	ldi	r21, 0x01	; 1
     cba:	b7 01       	movw	r22, r14
     cbc:	c8 01       	movw	r24, r16
     cbe:	b8 de       	rcall	.-656    	; 0xa30 <_ZN9cmdParser5matchEP26list_array_uint8_t_elementPKhh>
     cc0:	88 23       	and	r24, r24
     cc2:	99 f0       	breq	.+38     	; 0xcea <_ZN9cmdParser7resolveEP26list_array_uint8_t_element+0x150>
									if(cmd->post!=nullptr){
     cc4:	f7 01       	movw	r30, r14
     cc6:	c5 80       	ldd	r12, Z+5	; 0x05
     cc8:	d6 80       	ldd	r13, Z+6	; 0x06
     cca:	c1 14       	cp	r12, r1
     ccc:	d1 04       	cpc	r13, r1
     cce:	51 f0       	breq	.+20     	; 0xce4 <_ZN9cmdParser7resolveEP26list_array_uint8_t_element+0x14a>
										cmd=cmd->post;
										if(cmd->post!=nullptr){
     cd0:	f6 01       	movw	r30, r12
     cd2:	85 81       	ldd	r24, Z+5	; 0x05
     cd4:	96 81       	ldd	r25, Z+6	; 0x06
     cd6:	89 2b       	or	r24, r25
     cd8:	39 f4       	brne	.+14     	; 0xce8 <_ZN9cmdParser7resolveEP26list_array_uint8_t_element+0x14e>
											
										}else{
											cmdHandler__io_get_config_io3(CharArrayToInt(cmd));
     cda:	c6 01       	movw	r24, r12
     cdc:	d6 de       	rcall	.-596    	; 0xa8a <_Z14CharArrayToIntP26list_array_uint8_t_element>
     cde:	2d dd       	rcall	.-1446   	; 0x73a <_Z29cmdHandler__io_get_config_io3j>
										
									}
								}
								if(match(cmd,cmd_io3, cmd_io3_size)){
									if(cmd->post!=nullptr){
										cmd=cmd->post;
     ce0:	76 01       	movw	r14, r12
     ce2:	03 c0       	rjmp	.+6      	; 0xcea <_ZN9cmdParser7resolveEP26list_array_uint8_t_element+0x150>
										}else{
											cmdHandler__io_get_config_io3(CharArrayToInt(cmd));
											
										}
									}else{
										cmdHandler__io_get_config_io3();
     ce4:	29 dd       	rcall	.-1454   	; 0x738 <_Z29cmdHandler__io_get_config_io3v>
     ce6:	01 c0       	rjmp	.+2      	; 0xcea <_ZN9cmdParser7resolveEP26list_array_uint8_t_element+0x150>
										
									}
								}
								if(match(cmd,cmd_io3, cmd_io3_size)){
									if(cmd->post!=nullptr){
										cmd=cmd->post;
     ce8:	76 01       	movw	r14, r12
									}else{
										cmdHandler__io_get_config_io3();
										
									}
								}
								if(match(cmd,cmd_adc0, cmd_adc0_size)){
     cea:	24 e0       	ldi	r18, 0x04	; 4
     cec:	41 e1       	ldi	r20, 0x11	; 17
     cee:	51 e0       	ldi	r21, 0x01	; 1
     cf0:	b7 01       	movw	r22, r14
     cf2:	c8 01       	movw	r24, r16
     cf4:	9d de       	rcall	.-710    	; 0xa30 <_ZN9cmdParser5matchEP26list_array_uint8_t_elementPKhh>
     cf6:	88 23       	and	r24, r24
     cf8:	99 f0       	breq	.+38     	; 0xd20 <_ZN9cmdParser7resolveEP26list_array_uint8_t_element+0x186>
									if(cmd->post!=nullptr){
     cfa:	f7 01       	movw	r30, r14
     cfc:	c5 80       	ldd	r12, Z+5	; 0x05
     cfe:	d6 80       	ldd	r13, Z+6	; 0x06
     d00:	c1 14       	cp	r12, r1
     d02:	d1 04       	cpc	r13, r1
     d04:	51 f0       	breq	.+20     	; 0xd1a <_ZN9cmdParser7resolveEP26list_array_uint8_t_element+0x180>
										cmd=cmd->post;
										if(cmd->post!=nullptr){
     d06:	f6 01       	movw	r30, r12
     d08:	85 81       	ldd	r24, Z+5	; 0x05
     d0a:	96 81       	ldd	r25, Z+6	; 0x06
     d0c:	89 2b       	or	r24, r25
     d0e:	39 f4       	brne	.+14     	; 0xd1e <_ZN9cmdParser7resolveEP26list_array_uint8_t_element+0x184>
											
										}else{
											cmdHandler__io_get_config_adc0(CharArrayToInt(cmd));
     d10:	c6 01       	movw	r24, r12
     d12:	bb de       	rcall	.-650    	; 0xa8a <_Z14CharArrayToIntP26list_array_uint8_t_element>
     d14:	14 dd       	rcall	.-1496   	; 0x73e <_Z30cmdHandler__io_get_config_adc0j>
										
									}
								}
								if(match(cmd,cmd_adc0, cmd_adc0_size)){
									if(cmd->post!=nullptr){
										cmd=cmd->post;
     d16:	76 01       	movw	r14, r12
     d18:	03 c0       	rjmp	.+6      	; 0xd20 <_ZN9cmdParser7resolveEP26list_array_uint8_t_element+0x186>
											
										}else{
											cmdHandler__io_get_config_adc0(CharArrayToInt(cmd));
										}
									}else{
										cmdHandler__io_get_config_adc0();
     d1a:	10 dd       	rcall	.-1504   	; 0x73c <_Z30cmdHandler__io_get_config_adc0v>
     d1c:	01 c0       	rjmp	.+2      	; 0xd20 <_ZN9cmdParser7resolveEP26list_array_uint8_t_element+0x186>
										
									}
								}
								if(match(cmd,cmd_adc0, cmd_adc0_size)){
									if(cmd->post!=nullptr){
										cmd=cmd->post;
     d1e:	76 01       	movw	r14, r12
										}
									}else{
										cmdHandler__io_get_config_adc0();
									}
								}
								if(match(cmd,cmd_adc1, cmd_adc1_size)){
     d20:	24 e0       	ldi	r18, 0x04	; 4
     d22:	4d e0       	ldi	r20, 0x0D	; 13
     d24:	51 e0       	ldi	r21, 0x01	; 1
     d26:	b7 01       	movw	r22, r14
     d28:	c8 01       	movw	r24, r16
     d2a:	82 de       	rcall	.-764    	; 0xa30 <_ZN9cmdParser5matchEP26list_array_uint8_t_elementPKhh>
     d2c:	88 23       	and	r24, r24
     d2e:	c1 f0       	breq	.+48     	; 0xd60 <_ZN9cmdParser7resolveEP26list_array_uint8_t_element+0x1c6>
									if(cmd->post!=nullptr){
     d30:	f7 01       	movw	r30, r14
     d32:	c5 80       	ldd	r12, Z+5	; 0x05
     d34:	d6 80       	ldd	r13, Z+6	; 0x06
     d36:	c1 14       	cp	r12, r1
     d38:	d1 04       	cpc	r13, r1
     d3a:	51 f0       	breq	.+20     	; 0xd50 <_ZN9cmdParser7resolveEP26list_array_uint8_t_element+0x1b6>
										cmd=cmd->post;
										if(cmd->post!=nullptr){
     d3c:	f6 01       	movw	r30, r12
     d3e:	85 81       	ldd	r24, Z+5	; 0x05
     d40:	96 81       	ldd	r25, Z+6	; 0x06
     d42:	89 2b       	or	r24, r25
     d44:	61 f4       	brne	.+24     	; 0xd5e <_ZN9cmdParser7resolveEP26list_array_uint8_t_element+0x1c4>
											
										}else{
											cmdHandler__io_get_config_adc1(CharArrayToInt(cmd));
     d46:	c6 01       	movw	r24, r12
     d48:	a0 de       	rcall	.-704    	; 0xa8a <_Z14CharArrayToIntP26list_array_uint8_t_element>
     d4a:	fb dc       	rcall	.-1546   	; 0x742 <_Z30cmdHandler__io_get_config_adc1j>
										cmdHandler__io_get_config_adc0();
									}
								}
								if(match(cmd,cmd_adc1, cmd_adc1_size)){
									if(cmd->post!=nullptr){
										cmd=cmd->post;
     d4c:	76 01       	movw	r14, r12
     d4e:	08 c0       	rjmp	.+16     	; 0xd60 <_ZN9cmdParser7resolveEP26list_array_uint8_t_element+0x1c6>
											
										}else{
											cmdHandler__io_get_config_adc1(CharArrayToInt(cmd));
										}
									}else{
										cmdHandler__io_get_config_adc1();
     d50:	f7 dc       	rcall	.-1554   	; 0x740 <_Z30cmdHandler__io_get_config_adc1v>
     d52:	06 c0       	rjmp	.+12     	; 0xd60 <_ZN9cmdParser7resolveEP26list_array_uint8_t_element+0x1c6>
									}
								}
							}else{
								cmdHandler__io_get_config();
     d54:	ea dc       	rcall	.-1580   	; 0x72a <_Z25cmdHandler__io_get_configv>
		if(match(cmd, cmd_io, cmd_io_size)){
			if(cmd->post!=nullptr){
				cmd=cmd->post;
				if(match(cmd, cmd_get, cmd_get_size)){
					if(cmd->post!=nullptr){
						cmd=cmd->post;
     d56:	76 01       	movw	r14, r12
     d58:	03 c0       	rjmp	.+6      	; 0xd60 <_ZN9cmdParser7resolveEP26list_array_uint8_t_element+0x1c6>
     d5a:	76 01       	movw	r14, r12
     d5c:	01 c0       	rjmp	.+2      	; 0xd60 <_ZN9cmdParser7resolveEP26list_array_uint8_t_element+0x1c6>
										cmdHandler__io_get_config_adc0();
									}
								}
								if(match(cmd,cmd_adc1, cmd_adc1_size)){
									if(cmd->post!=nullptr){
										cmd=cmd->post;
     d5e:	76 01       	movw	r14, r12
								}
							}else{
								cmdHandler__io_get_config();
							}
						}
						if(match(cmd, cmd_value, cmd_value_size)){
     d60:	25 e0       	ldi	r18, 0x05	; 5
     d62:	41 e2       	ldi	r20, 0x21	; 33
     d64:	51 e0       	ldi	r21, 0x01	; 1
     d66:	b7 01       	movw	r22, r14
     d68:	c8 01       	movw	r24, r16
     d6a:	62 de       	rcall	.-828    	; 0xa30 <_ZN9cmdParser5matchEP26list_array_uint8_t_elementPKhh>
     d6c:	88 23       	and	r24, r24
     d6e:	09 f4       	brne	.+2      	; 0xd72 <_ZN9cmdParser7resolveEP26list_array_uint8_t_element+0x1d8>
     d70:	ad c0       	rjmp	.+346    	; 0xecc <_ZN9cmdParser7resolveEP26list_array_uint8_t_element+0x332>
							if(cmd->post!=nullptr){
     d72:	f7 01       	movw	r30, r14
     d74:	c5 80       	ldd	r12, Z+5	; 0x05
     d76:	d6 80       	ldd	r13, Z+6	; 0x06
     d78:	c1 14       	cp	r12, r1
     d7a:	d1 04       	cpc	r13, r1
     d7c:	09 f4       	brne	.+2      	; 0xd80 <_ZN9cmdParser7resolveEP26list_array_uint8_t_element+0x1e6>
     d7e:	a1 c0       	rjmp	.+322    	; 0xec2 <_ZN9cmdParser7resolveEP26list_array_uint8_t_element+0x328>
								cmd=cmd->post;
								if(match(cmd, cmd_io0, cmd_io0_size)){
     d80:	23 e0       	ldi	r18, 0x03	; 3
     d82:	4e e1       	ldi	r20, 0x1E	; 30
     d84:	51 e0       	ldi	r21, 0x01	; 1
     d86:	b6 01       	movw	r22, r12
     d88:	c8 01       	movw	r24, r16
     d8a:	52 de       	rcall	.-860    	; 0xa30 <_ZN9cmdParser5matchEP26list_array_uint8_t_elementPKhh>
     d8c:	88 23       	and	r24, r24
     d8e:	99 f0       	breq	.+38     	; 0xdb6 <_ZN9cmdParser7resolveEP26list_array_uint8_t_element+0x21c>
									if(cmd->post!=nullptr){
     d90:	f6 01       	movw	r30, r12
     d92:	e5 80       	ldd	r14, Z+5	; 0x05
     d94:	f6 80       	ldd	r15, Z+6	; 0x06
     d96:	e1 14       	cp	r14, r1
     d98:	f1 04       	cpc	r15, r1
     d9a:	51 f0       	breq	.+20     	; 0xdb0 <_ZN9cmdParser7resolveEP26list_array_uint8_t_element+0x216>
										cmd=cmd->post;
										if(cmd->post!=nullptr){
     d9c:	f7 01       	movw	r30, r14
     d9e:	85 81       	ldd	r24, Z+5	; 0x05
     da0:	96 81       	ldd	r25, Z+6	; 0x06
     da2:	89 2b       	or	r24, r25
     da4:	39 f4       	brne	.+14     	; 0xdb4 <_ZN9cmdParser7resolveEP26list_array_uint8_t_element+0x21a>
										
										}else{
											cmdHandler__io_get_value_io0(CharArrayToInt(cmd));
     da6:	c7 01       	movw	r24, r14
     da8:	70 de       	rcall	.-800    	; 0xa8a <_Z14CharArrayToIntP26list_array_uint8_t_element>
     daa:	ff dc       	rcall	.-1538   	; 0x7aa <_Z28cmdHandler__io_get_value_io0j>
						if(match(cmd, cmd_value, cmd_value_size)){
							if(cmd->post!=nullptr){
								cmd=cmd->post;
								if(match(cmd, cmd_io0, cmd_io0_size)){
									if(cmd->post!=nullptr){
										cmd=cmd->post;
     dac:	67 01       	movw	r12, r14
     dae:	03 c0       	rjmp	.+6      	; 0xdb6 <_ZN9cmdParser7resolveEP26list_array_uint8_t_element+0x21c>
										
										}else{
											cmdHandler__io_get_value_io0(CharArrayToInt(cmd));
										}
									}else{
										cmdHandler__io_get_value_io0();
     db0:	ca dc       	rcall	.-1644   	; 0x746 <_Z28cmdHandler__io_get_value_io0v>
     db2:	01 c0       	rjmp	.+2      	; 0xdb6 <_ZN9cmdParser7resolveEP26list_array_uint8_t_element+0x21c>
						if(match(cmd, cmd_value, cmd_value_size)){
							if(cmd->post!=nullptr){
								cmd=cmd->post;
								if(match(cmd, cmd_io0, cmd_io0_size)){
									if(cmd->post!=nullptr){
										cmd=cmd->post;
     db4:	67 01       	movw	r12, r14
										}
									}else{
										cmdHandler__io_get_value_io0();
									}
								}
								if(match(cmd, cmd_io1, cmd_io1_size)){
     db6:	23 e0       	ldi	r18, 0x03	; 3
     db8:	4b e1       	ldi	r20, 0x1B	; 27
     dba:	51 e0       	ldi	r21, 0x01	; 1
     dbc:	b6 01       	movw	r22, r12
     dbe:	c8 01       	movw	r24, r16
     dc0:	37 de       	rcall	.-914    	; 0xa30 <_ZN9cmdParser5matchEP26list_array_uint8_t_elementPKhh>
     dc2:	88 23       	and	r24, r24
     dc4:	99 f0       	breq	.+38     	; 0xdec <_ZN9cmdParser7resolveEP26list_array_uint8_t_element+0x252>
									if(cmd->post!=nullptr){
     dc6:	f6 01       	movw	r30, r12
     dc8:	e5 80       	ldd	r14, Z+5	; 0x05
     dca:	f6 80       	ldd	r15, Z+6	; 0x06
     dcc:	e1 14       	cp	r14, r1
     dce:	f1 04       	cpc	r15, r1
     dd0:	51 f0       	breq	.+20     	; 0xde6 <_ZN9cmdParser7resolveEP26list_array_uint8_t_element+0x24c>
										cmd=cmd->post;
										if(cmd->post!=nullptr){
     dd2:	f7 01       	movw	r30, r14
     dd4:	85 81       	ldd	r24, Z+5	; 0x05
     dd6:	96 81       	ldd	r25, Z+6	; 0x06
     dd8:	89 2b       	or	r24, r25
     dda:	39 f4       	brne	.+14     	; 0xdea <_ZN9cmdParser7resolveEP26list_array_uint8_t_element+0x250>
											
											}else{
											cmdHandler__io_get_value_io1(CharArrayToInt(cmd));
     ddc:	c7 01       	movw	r24, r14
     dde:	55 de       	rcall	.-854    	; 0xa8a <_Z14CharArrayToIntP26list_array_uint8_t_element>
     de0:	31 dd       	rcall	.-1438   	; 0x844 <_Z28cmdHandler__io_get_value_io1j>
										cmdHandler__io_get_value_io0();
									}
								}
								if(match(cmd, cmd_io1, cmd_io1_size)){
									if(cmd->post!=nullptr){
										cmd=cmd->post;
     de2:	67 01       	movw	r12, r14
     de4:	03 c0       	rjmp	.+6      	; 0xdec <_ZN9cmdParser7resolveEP26list_array_uint8_t_element+0x252>
											
											}else{
											cmdHandler__io_get_value_io1(CharArrayToInt(cmd));
										}
										}else{
										cmdHandler__io_get_value_io1();
     de6:	fc dc       	rcall	.-1544   	; 0x7e0 <_Z28cmdHandler__io_get_value_io1v>
     de8:	01 c0       	rjmp	.+2      	; 0xdec <_ZN9cmdParser7resolveEP26list_array_uint8_t_element+0x252>
										cmdHandler__io_get_value_io0();
									}
								}
								if(match(cmd, cmd_io1, cmd_io1_size)){
									if(cmd->post!=nullptr){
										cmd=cmd->post;
     dea:	67 01       	movw	r12, r14
										}
										}else{
										cmdHandler__io_get_value_io1();
									}
								}
								if(match(cmd, cmd_io2, cmd_io2_size)){
     dec:	23 e0       	ldi	r18, 0x03	; 3
     dee:	48 e1       	ldi	r20, 0x18	; 24
     df0:	51 e0       	ldi	r21, 0x01	; 1
     df2:	b6 01       	movw	r22, r12
     df4:	c8 01       	movw	r24, r16
     df6:	1c de       	rcall	.-968    	; 0xa30 <_ZN9cmdParser5matchEP26list_array_uint8_t_elementPKhh>
     df8:	88 23       	and	r24, r24
     dfa:	99 f0       	breq	.+38     	; 0xe22 <_ZN9cmdParser7resolveEP26list_array_uint8_t_element+0x288>
									if(cmd->post!=nullptr){
     dfc:	f6 01       	movw	r30, r12
     dfe:	e5 80       	ldd	r14, Z+5	; 0x05
     e00:	f6 80       	ldd	r15, Z+6	; 0x06
     e02:	e1 14       	cp	r14, r1
     e04:	f1 04       	cpc	r15, r1
     e06:	51 f0       	breq	.+20     	; 0xe1c <_ZN9cmdParser7resolveEP26list_array_uint8_t_element+0x282>
										cmd=cmd->post;
										if(cmd->post!=nullptr){
     e08:	f7 01       	movw	r30, r14
     e0a:	85 81       	ldd	r24, Z+5	; 0x05
     e0c:	96 81       	ldd	r25, Z+6	; 0x06
     e0e:	89 2b       	or	r24, r25
     e10:	39 f4       	brne	.+14     	; 0xe20 <_ZN9cmdParser7resolveEP26list_array_uint8_t_element+0x286>
											
											}else{
											cmdHandler__io_get_value_io2(CharArrayToInt(cmd));
     e12:	c7 01       	movw	r24, r14
     e14:	3a de       	rcall	.-908    	; 0xa8a <_Z14CharArrayToIntP26list_array_uint8_t_element>
     e16:	63 dd       	rcall	.-1338   	; 0x8de <_Z28cmdHandler__io_get_value_io2j>
										cmdHandler__io_get_value_io1();
									}
								}
								if(match(cmd, cmd_io2, cmd_io2_size)){
									if(cmd->post!=nullptr){
										cmd=cmd->post;
     e18:	67 01       	movw	r12, r14
     e1a:	03 c0       	rjmp	.+6      	; 0xe22 <_ZN9cmdParser7resolveEP26list_array_uint8_t_element+0x288>
											
											}else{
											cmdHandler__io_get_value_io2(CharArrayToInt(cmd));
										}
										}else{
										cmdHandler__io_get_value_io2();
     e1c:	2e dd       	rcall	.-1444   	; 0x87a <_Z28cmdHandler__io_get_value_io2v>
     e1e:	01 c0       	rjmp	.+2      	; 0xe22 <_ZN9cmdParser7resolveEP26list_array_uint8_t_element+0x288>
										cmdHandler__io_get_value_io1();
									}
								}
								if(match(cmd, cmd_io2, cmd_io2_size)){
									if(cmd->post!=nullptr){
										cmd=cmd->post;
     e20:	67 01       	movw	r12, r14
										}
										}else{
										cmdHandler__io_get_value_io2();
									}
								}
								if(match(cmd, cmd_io3, cmd_io3_size)){
     e22:	23 e0       	ldi	r18, 0x03	; 3
     e24:	45 e1       	ldi	r20, 0x15	; 21
     e26:	51 e0       	ldi	r21, 0x01	; 1
     e28:	b6 01       	movw	r22, r12
     e2a:	c8 01       	movw	r24, r16
     e2c:	01 de       	rcall	.-1022   	; 0xa30 <_ZN9cmdParser5matchEP26list_array_uint8_t_elementPKhh>
     e2e:	88 23       	and	r24, r24
     e30:	99 f0       	breq	.+38     	; 0xe58 <_ZN9cmdParser7resolveEP26list_array_uint8_t_element+0x2be>
									if(cmd->post!=nullptr){
     e32:	f6 01       	movw	r30, r12
     e34:	e5 80       	ldd	r14, Z+5	; 0x05
     e36:	f6 80       	ldd	r15, Z+6	; 0x06
     e38:	e1 14       	cp	r14, r1
     e3a:	f1 04       	cpc	r15, r1
     e3c:	51 f0       	breq	.+20     	; 0xe52 <_ZN9cmdParser7resolveEP26list_array_uint8_t_element+0x2b8>
										cmd=cmd->post;
										if(cmd->post!=nullptr){
     e3e:	f7 01       	movw	r30, r14
     e40:	85 81       	ldd	r24, Z+5	; 0x05
     e42:	96 81       	ldd	r25, Z+6	; 0x06
     e44:	89 2b       	or	r24, r25
     e46:	39 f4       	brne	.+14     	; 0xe56 <_ZN9cmdParser7resolveEP26list_array_uint8_t_element+0x2bc>
											
											}else{
											cmdHandler__io_get_value_io3(CharArrayToInt(cmd));
     e48:	c7 01       	movw	r24, r14
     e4a:	1f de       	rcall	.-962    	; 0xa8a <_Z14CharArrayToIntP26list_array_uint8_t_element>
     e4c:	95 dd       	rcall	.-1238   	; 0x978 <_Z28cmdHandler__io_get_value_io3j>
										cmdHandler__io_get_value_io2();
									}
								}
								if(match(cmd, cmd_io3, cmd_io3_size)){
									if(cmd->post!=nullptr){
										cmd=cmd->post;
     e4e:	67 01       	movw	r12, r14
     e50:	03 c0       	rjmp	.+6      	; 0xe58 <_ZN9cmdParser7resolveEP26list_array_uint8_t_element+0x2be>
											
											}else{
											cmdHandler__io_get_value_io3(CharArrayToInt(cmd));
										}
										}else{
										cmdHandler__io_get_value_io3();
     e52:	60 dd       	rcall	.-1344   	; 0x914 <_Z28cmdHandler__io_get_value_io3v>
     e54:	01 c0       	rjmp	.+2      	; 0xe58 <_ZN9cmdParser7resolveEP26list_array_uint8_t_element+0x2be>
										cmdHandler__io_get_value_io2();
									}
								}
								if(match(cmd, cmd_io3, cmd_io3_size)){
									if(cmd->post!=nullptr){
										cmd=cmd->post;
     e56:	67 01       	movw	r12, r14
										}
										}else{
										cmdHandler__io_get_value_io3();
									}
								}
								if(match(cmd, cmd_adc0, cmd_adc0_size)){
     e58:	24 e0       	ldi	r18, 0x04	; 4
     e5a:	41 e1       	ldi	r20, 0x11	; 17
     e5c:	51 e0       	ldi	r21, 0x01	; 1
     e5e:	b6 01       	movw	r22, r12
     e60:	c8 01       	movw	r24, r16
     e62:	e6 dd       	rcall	.-1076   	; 0xa30 <_ZN9cmdParser5matchEP26list_array_uint8_t_elementPKhh>
     e64:	88 23       	and	r24, r24
     e66:	99 f0       	breq	.+38     	; 0xe8e <_ZN9cmdParser7resolveEP26list_array_uint8_t_element+0x2f4>
									if(cmd->post!=nullptr){
     e68:	f6 01       	movw	r30, r12
     e6a:	e5 80       	ldd	r14, Z+5	; 0x05
     e6c:	f6 80       	ldd	r15, Z+6	; 0x06
     e6e:	e1 14       	cp	r14, r1
     e70:	f1 04       	cpc	r15, r1
     e72:	51 f0       	breq	.+20     	; 0xe88 <_ZN9cmdParser7resolveEP26list_array_uint8_t_element+0x2ee>
										cmd=cmd->post;
										if(cmd->post!=nullptr){
     e74:	f7 01       	movw	r30, r14
     e76:	85 81       	ldd	r24, Z+5	; 0x05
     e78:	96 81       	ldd	r25, Z+6	; 0x06
     e7a:	89 2b       	or	r24, r25
     e7c:	39 f4       	brne	.+14     	; 0xe8c <_ZN9cmdParser7resolveEP26list_array_uint8_t_element+0x2f2>
											
											}else{
											cmdHandler__io_get_value_adc0(CharArrayToInt(cmd));
     e7e:	c7 01       	movw	r24, r14
     e80:	04 de       	rcall	.-1016   	; 0xa8a <_Z14CharArrayToIntP26list_array_uint8_t_element>
     e82:	96 dd       	rcall	.-1236   	; 0x9b0 <_Z29cmdHandler__io_get_value_adc0j>
										cmdHandler__io_get_value_io3();
									}
								}
								if(match(cmd, cmd_adc0, cmd_adc0_size)){
									if(cmd->post!=nullptr){
										cmd=cmd->post;
     e84:	67 01       	movw	r12, r14
     e86:	03 c0       	rjmp	.+6      	; 0xe8e <_ZN9cmdParser7resolveEP26list_array_uint8_t_element+0x2f4>
											
											}else{
											cmdHandler__io_get_value_adc0(CharArrayToInt(cmd));
										}
										}else{
										cmdHandler__io_get_value_adc0();
     e88:	92 dd       	rcall	.-1244   	; 0x9ae <_Z29cmdHandler__io_get_value_adc0v>
     e8a:	01 c0       	rjmp	.+2      	; 0xe8e <_ZN9cmdParser7resolveEP26list_array_uint8_t_element+0x2f4>
										cmdHandler__io_get_value_io3();
									}
								}
								if(match(cmd, cmd_adc0, cmd_adc0_size)){
									if(cmd->post!=nullptr){
										cmd=cmd->post;
     e8c:	67 01       	movw	r12, r14
										}
										}else{
										cmdHandler__io_get_value_adc0();
									}
								}
								if(match(cmd, cmd_adc1, cmd_adc1_size)){
     e8e:	24 e0       	ldi	r18, 0x04	; 4
     e90:	4d e0       	ldi	r20, 0x0D	; 13
     e92:	51 e0       	ldi	r21, 0x01	; 1
     e94:	b6 01       	movw	r22, r12
     e96:	c8 01       	movw	r24, r16
     e98:	cb dd       	rcall	.-1130   	; 0xa30 <_ZN9cmdParser5matchEP26list_array_uint8_t_elementPKhh>
     e9a:	88 23       	and	r24, r24
     e9c:	b1 f0       	breq	.+44     	; 0xeca <_ZN9cmdParser7resolveEP26list_array_uint8_t_element+0x330>
									if(cmd->post!=nullptr){
     e9e:	f6 01       	movw	r30, r12
     ea0:	e5 80       	ldd	r14, Z+5	; 0x05
     ea2:	f6 80       	ldd	r15, Z+6	; 0x06
     ea4:	e1 14       	cp	r14, r1
     ea6:	f1 04       	cpc	r15, r1
     ea8:	49 f0       	breq	.+18     	; 0xebc <_ZN9cmdParser7resolveEP26list_array_uint8_t_element+0x322>
										cmd=cmd->post;
										if(cmd->post!=nullptr){
     eaa:	f7 01       	movw	r30, r14
     eac:	85 81       	ldd	r24, Z+5	; 0x05
     eae:	96 81       	ldd	r25, Z+6	; 0x06
     eb0:	89 2b       	or	r24, r25
     eb2:	61 f4       	brne	.+24     	; 0xecc <_ZN9cmdParser7resolveEP26list_array_uint8_t_element+0x332>
											
											}else{
											cmdHandler__io_get_value_adc1(CharArrayToInt(cmd));
     eb4:	c7 01       	movw	r24, r14
     eb6:	e9 dd       	rcall	.-1070   	; 0xa8a <_Z14CharArrayToIntP26list_array_uint8_t_element>
     eb8:	99 dd       	rcall	.-1230   	; 0x9ec <_Z29cmdHandler__io_get_value_adc1j>
     eba:	08 c0       	rjmp	.+16     	; 0xecc <_ZN9cmdParser7resolveEP26list_array_uint8_t_element+0x332>
										}
										}else{
										cmdHandler__io_get_value_adc1();
     ebc:	96 dd       	rcall	.-1236   	; 0x9ea <_Z29cmdHandler__io_get_value_adc1v>
     ebe:	76 01       	movw	r14, r12
     ec0:	05 c0       	rjmp	.+10     	; 0xecc <_ZN9cmdParser7resolveEP26list_array_uint8_t_element+0x332>
									}
								}

							}else{
								cmdHandler__io_get_value();
     ec2:	40 dc       	rcall	.-1920   	; 0x744 <_Z24cmdHandler__io_get_valuev>
     ec4:	03 c0       	rjmp	.+6      	; 0xecc <_ZN9cmdParser7resolveEP26list_array_uint8_t_element+0x332>
							}
						}
					}else{
						cmdHandler__io_get();
     ec6:	30 dc       	rcall	.-1952   	; 0x728 <_Z18cmdHandler__io_getv>
     ec8:	01 c0       	rjmp	.+2      	; 0xecc <_ZN9cmdParser7resolveEP26list_array_uint8_t_element+0x332>
     eca:	76 01       	movw	r14, r12
					}
				}
				if (match(cmd, cmd_set, cmd_set_size)){
     ecc:	23 e0       	ldi	r18, 0x03	; 3
     ece:	41 e3       	ldi	r20, 0x31	; 49
     ed0:	51 e0       	ldi	r21, 0x01	; 1
     ed2:	b7 01       	movw	r22, r14
     ed4:	c8 01       	movw	r24, r16
     ed6:	ac dd       	rcall	.-1192   	; 0xa30 <_ZN9cmdParser5matchEP26list_array_uint8_t_elementPKhh>
     ed8:	88 23       	and	r24, r24
     eda:	09 f4       	brne	.+2      	; 0xede <_ZN9cmdParser7resolveEP26list_array_uint8_t_element+0x344>
     edc:	f0 c0       	rjmp	.+480    	; 0x10be <_ZN9cmdParser7resolveEP26list_array_uint8_t_element+0x524>
					if(cmd->post!=nullptr){
     ede:	f7 01       	movw	r30, r14
     ee0:	e5 80       	ldd	r14, Z+5	; 0x05
     ee2:	f6 80       	ldd	r15, Z+6	; 0x06
     ee4:	e1 14       	cp	r14, r1
     ee6:	f1 04       	cpc	r15, r1
     ee8:	09 f4       	brne	.+2      	; 0xeec <_ZN9cmdParser7resolveEP26list_array_uint8_t_element+0x352>
     eea:	e6 c0       	rjmp	.+460    	; 0x10b8 <_ZN9cmdParser7resolveEP26list_array_uint8_t_element+0x51e>
						cmd=cmd->post;
						if(match(cmd, cmd_value, cmd_value_size)){
     eec:	25 e0       	ldi	r18, 0x05	; 5
     eee:	41 e2       	ldi	r20, 0x21	; 33
     ef0:	51 e0       	ldi	r21, 0x01	; 1
     ef2:	b7 01       	movw	r22, r14
     ef4:	c8 01       	movw	r24, r16
     ef6:	9c dd       	rcall	.-1224   	; 0xa30 <_ZN9cmdParser5matchEP26list_array_uint8_t_elementPKhh>
     ef8:	88 23       	and	r24, r24
     efa:	09 f4       	brne	.+2      	; 0xefe <_ZN9cmdParser7resolveEP26list_array_uint8_t_element+0x364>
     efc:	e0 c0       	rjmp	.+448    	; 0x10be <_ZN9cmdParser7resolveEP26list_array_uint8_t_element+0x524>
							if(cmd->post!=nullptr){
     efe:	f7 01       	movw	r30, r14
     f00:	e5 80       	ldd	r14, Z+5	; 0x05
     f02:	f6 80       	ldd	r15, Z+6	; 0x06
     f04:	e1 14       	cp	r14, r1
     f06:	f1 04       	cpc	r15, r1
     f08:	09 f4       	brne	.+2      	; 0xf0c <_ZN9cmdParser7resolveEP26list_array_uint8_t_element+0x372>
     f0a:	d4 c0       	rjmp	.+424    	; 0x10b4 <_ZN9cmdParser7resolveEP26list_array_uint8_t_element+0x51a>
								cmd=cmd->post;
								if(match(cmd, cmd_io0, cmd_io0_size)){
     f0c:	23 e0       	ldi	r18, 0x03	; 3
     f0e:	4e e1       	ldi	r20, 0x1E	; 30
     f10:	51 e0       	ldi	r21, 0x01	; 1
     f12:	b7 01       	movw	r22, r14
     f14:	c8 01       	movw	r24, r16
     f16:	8c dd       	rcall	.-1256   	; 0xa30 <_ZN9cmdParser5matchEP26list_array_uint8_t_elementPKhh>
     f18:	88 23       	and	r24, r24
     f1a:	69 f1       	breq	.+90     	; 0xf76 <_ZN9cmdParser7resolveEP26list_array_uint8_t_element+0x3dc>
									if(cmd->post!=nullptr){
     f1c:	f7 01       	movw	r30, r14
     f1e:	c5 80       	ldd	r12, Z+5	; 0x05
     f20:	d6 80       	ldd	r13, Z+6	; 0x06
     f22:	c1 14       	cp	r12, r1
     f24:	d1 04       	cpc	r13, r1
     f26:	39 f1       	breq	.+78     	; 0xf76 <_ZN9cmdParser7resolveEP26list_array_uint8_t_element+0x3dc>
										cmd=cmd->post;
										if(match(cmd, cmd_true, cmd_true_size)){
     f28:	24 e0       	ldi	r18, 0x04	; 4
     f2a:	49 e0       	ldi	r20, 0x09	; 9
     f2c:	51 e0       	ldi	r21, 0x01	; 1
     f2e:	b6 01       	movw	r22, r12
     f30:	c8 01       	movw	r24, r16
     f32:	7e dd       	rcall	.-1284   	; 0xa30 <_ZN9cmdParser5matchEP26list_array_uint8_t_elementPKhh>
     f34:	88 23       	and	r24, r24
     f36:	51 f0       	breq	.+20     	; 0xf4c <_ZN9cmdParser7resolveEP26list_array_uint8_t_element+0x3b2>
											if(cmd->post!=nullptr){
     f38:	f6 01       	movw	r30, r12
     f3a:	e5 80       	ldd	r14, Z+5	; 0x05
     f3c:	f6 80       	ldd	r15, Z+6	; 0x06
     f3e:	e1 14       	cp	r14, r1
     f40:	f1 04       	cpc	r15, r1
     f42:	31 f0       	breq	.+12     	; 0xf50 <_ZN9cmdParser7resolveEP26list_array_uint8_t_element+0x3b6>
												cmd=cmd->post;
												if(cmd->post!=nullptr){

												}{
													cmdHandler__io_set_value_io0_true(CharArrayToInt(cmd));
     f44:	c7 01       	movw	r24, r14
     f46:	a1 dd       	rcall	.-1214   	; 0xa8a <_Z14CharArrayToIntP26list_array_uint8_t_element>
     f48:	b7 da       	rcall	.-2706   	; 0x4b8 <_Z33cmdHandler__io_set_value_io0_truei>
     f4a:	03 c0       	rjmp	.+6      	; 0xf52 <_ZN9cmdParser7resolveEP26list_array_uint8_t_element+0x3b8>
						if(match(cmd, cmd_value, cmd_value_size)){
							if(cmd->post!=nullptr){
								cmd=cmd->post;
								if(match(cmd, cmd_io0, cmd_io0_size)){
									if(cmd->post!=nullptr){
										cmd=cmd->post;
     f4c:	76 01       	movw	r14, r12
     f4e:	01 c0       	rjmp	.+2      	; 0xf52 <_ZN9cmdParser7resolveEP26list_array_uint8_t_element+0x3b8>
     f50:	76 01       	movw	r14, r12
												}
											}else{

											}
										}
										if(match(cmd, cmd_false, cmd_false_size)){
     f52:	25 e0       	ldi	r18, 0x05	; 5
     f54:	44 e0       	ldi	r20, 0x04	; 4
     f56:	51 e0       	ldi	r21, 0x01	; 1
     f58:	b7 01       	movw	r22, r14
     f5a:	c8 01       	movw	r24, r16
     f5c:	69 dd       	rcall	.-1326   	; 0xa30 <_ZN9cmdParser5matchEP26list_array_uint8_t_elementPKhh>
     f5e:	88 23       	and	r24, r24
     f60:	51 f0       	breq	.+20     	; 0xf76 <_ZN9cmdParser7resolveEP26list_array_uint8_t_element+0x3dc>
											if(cmd->post!=nullptr){
     f62:	f7 01       	movw	r30, r14
     f64:	c5 80       	ldd	r12, Z+5	; 0x05
     f66:	d6 80       	ldd	r13, Z+6	; 0x06
     f68:	c1 14       	cp	r12, r1
     f6a:	d1 04       	cpc	r13, r1
     f6c:	21 f0       	breq	.+8      	; 0xf76 <_ZN9cmdParser7resolveEP26list_array_uint8_t_element+0x3dc>
												cmd=cmd->post;
												if(cmd->post!=nullptr){

													}{
													cmdHandler__io_set_value_io0_false(CharArrayToInt(cmd));
     f6e:	c6 01       	movw	r24, r12
     f70:	8c dd       	rcall	.-1256   	; 0xa8a <_Z14CharArrayToIntP26list_array_uint8_t_element>
     f72:	c9 da       	rcall	.-2670   	; 0x506 <_Z34cmdHandler__io_set_value_io0_falsei>

											}
										}
										if(match(cmd, cmd_false, cmd_false_size)){
											if(cmd->post!=nullptr){
												cmd=cmd->post;
     f74:	76 01       	movw	r14, r12
										}
									}else{
										//gibts net
									}
								}
								if(match(cmd, cmd_io1, cmd_io1_size)){
     f76:	23 e0       	ldi	r18, 0x03	; 3
     f78:	4b e1       	ldi	r20, 0x1B	; 27
     f7a:	51 e0       	ldi	r21, 0x01	; 1
     f7c:	b7 01       	movw	r22, r14
     f7e:	c8 01       	movw	r24, r16
     f80:	57 dd       	rcall	.-1362   	; 0xa30 <_ZN9cmdParser5matchEP26list_array_uint8_t_elementPKhh>
     f82:	88 23       	and	r24, r24
     f84:	69 f1       	breq	.+90     	; 0xfe0 <_ZN9cmdParser7resolveEP26list_array_uint8_t_element+0x446>
									if(cmd->post!=nullptr){
     f86:	f7 01       	movw	r30, r14
     f88:	c5 80       	ldd	r12, Z+5	; 0x05
     f8a:	d6 80       	ldd	r13, Z+6	; 0x06
     f8c:	c1 14       	cp	r12, r1
     f8e:	d1 04       	cpc	r13, r1
     f90:	39 f1       	breq	.+78     	; 0xfe0 <_ZN9cmdParser7resolveEP26list_array_uint8_t_element+0x446>
										cmd=cmd->post;
										if(match(cmd, cmd_true, cmd_true_size)){
     f92:	24 e0       	ldi	r18, 0x04	; 4
     f94:	49 e0       	ldi	r20, 0x09	; 9
     f96:	51 e0       	ldi	r21, 0x01	; 1
     f98:	b6 01       	movw	r22, r12
     f9a:	c8 01       	movw	r24, r16
     f9c:	49 dd       	rcall	.-1390   	; 0xa30 <_ZN9cmdParser5matchEP26list_array_uint8_t_elementPKhh>
     f9e:	88 23       	and	r24, r24
     fa0:	51 f0       	breq	.+20     	; 0xfb6 <_ZN9cmdParser7resolveEP26list_array_uint8_t_element+0x41c>
											if(cmd->post!=nullptr){
     fa2:	f6 01       	movw	r30, r12
     fa4:	e5 80       	ldd	r14, Z+5	; 0x05
     fa6:	f6 80       	ldd	r15, Z+6	; 0x06
     fa8:	e1 14       	cp	r14, r1
     faa:	f1 04       	cpc	r15, r1
     fac:	31 f0       	breq	.+12     	; 0xfba <_ZN9cmdParser7resolveEP26list_array_uint8_t_element+0x420>
												cmd=cmd->post;
												if(cmd->post!=nullptr){

													}{
													cmdHandler__io_set_value_io1_true(CharArrayToInt(cmd));
     fae:	c7 01       	movw	r24, r14
     fb0:	6c dd       	rcall	.-1320   	; 0xa8a <_Z14CharArrayToIntP26list_array_uint8_t_element>
     fb2:	d0 da       	rcall	.-2656   	; 0x554 <_Z33cmdHandler__io_set_value_io1_truei>
     fb4:	03 c0       	rjmp	.+6      	; 0xfbc <_ZN9cmdParser7resolveEP26list_array_uint8_t_element+0x422>
										//gibts net
									}
								}
								if(match(cmd, cmd_io1, cmd_io1_size)){
									if(cmd->post!=nullptr){
										cmd=cmd->post;
     fb6:	76 01       	movw	r14, r12
     fb8:	01 c0       	rjmp	.+2      	; 0xfbc <_ZN9cmdParser7resolveEP26list_array_uint8_t_element+0x422>
     fba:	76 01       	movw	r14, r12
												}
												}else{

											}
										}
										if(match(cmd, cmd_false, cmd_false_size)){
     fbc:	25 e0       	ldi	r18, 0x05	; 5
     fbe:	44 e0       	ldi	r20, 0x04	; 4
     fc0:	51 e0       	ldi	r21, 0x01	; 1
     fc2:	b7 01       	movw	r22, r14
     fc4:	c8 01       	movw	r24, r16
     fc6:	34 dd       	rcall	.-1432   	; 0xa30 <_ZN9cmdParser5matchEP26list_array_uint8_t_elementPKhh>
     fc8:	88 23       	and	r24, r24
     fca:	51 f0       	breq	.+20     	; 0xfe0 <_ZN9cmdParser7resolveEP26list_array_uint8_t_element+0x446>
											if(cmd->post!=nullptr){
     fcc:	f7 01       	movw	r30, r14
     fce:	c5 80       	ldd	r12, Z+5	; 0x05
     fd0:	d6 80       	ldd	r13, Z+6	; 0x06
     fd2:	c1 14       	cp	r12, r1
     fd4:	d1 04       	cpc	r13, r1
     fd6:	21 f0       	breq	.+8      	; 0xfe0 <_ZN9cmdParser7resolveEP26list_array_uint8_t_element+0x446>
												cmd=cmd->post;
												if(cmd->post!=nullptr){

													}{
													cmdHandler__io_set_value_io1_false(CharArrayToInt(cmd));
     fd8:	c6 01       	movw	r24, r12
     fda:	57 dd       	rcall	.-1362   	; 0xa8a <_Z14CharArrayToIntP26list_array_uint8_t_element>
     fdc:	e2 da       	rcall	.-2620   	; 0x5a2 <_Z34cmdHandler__io_set_value_io1_falsei>

											}
										}
										if(match(cmd, cmd_false, cmd_false_size)){
											if(cmd->post!=nullptr){
												cmd=cmd->post;
     fde:	76 01       	movw	r14, r12
										}
										}else{
										//gibts net
									}
								}
								if(match(cmd, cmd_io2, cmd_io2_size)){
     fe0:	23 e0       	ldi	r18, 0x03	; 3
     fe2:	48 e1       	ldi	r20, 0x18	; 24
     fe4:	51 e0       	ldi	r21, 0x01	; 1
     fe6:	b7 01       	movw	r22, r14
     fe8:	c8 01       	movw	r24, r16
     fea:	22 dd       	rcall	.-1468   	; 0xa30 <_ZN9cmdParser5matchEP26list_array_uint8_t_elementPKhh>
     fec:	88 23       	and	r24, r24
     fee:	91 f1       	breq	.+100    	; 0x1054 <_ZN9cmdParser7resolveEP26list_array_uint8_t_element+0x4ba>
									if(cmd->post!=nullptr){
     ff0:	f7 01       	movw	r30, r14
     ff2:	c5 80       	ldd	r12, Z+5	; 0x05
     ff4:	d6 80       	ldd	r13, Z+6	; 0x06
     ff6:	c1 14       	cp	r12, r1
     ff8:	d1 04       	cpc	r13, r1
     ffa:	61 f1       	breq	.+88     	; 0x1054 <_ZN9cmdParser7resolveEP26list_array_uint8_t_element+0x4ba>
										cmd=cmd->post;
										if(match(cmd, cmd_true, cmd_true_size)){
     ffc:	24 e0       	ldi	r18, 0x04	; 4
     ffe:	49 e0       	ldi	r20, 0x09	; 9
    1000:	51 e0       	ldi	r21, 0x01	; 1
    1002:	b6 01       	movw	r22, r12
    1004:	c8 01       	movw	r24, r16
    1006:	14 dd       	rcall	.-1496   	; 0xa30 <_ZN9cmdParser5matchEP26list_array_uint8_t_elementPKhh>
    1008:	88 23       	and	r24, r24
    100a:	51 f0       	breq	.+20     	; 0x1020 <_ZN9cmdParser7resolveEP26list_array_uint8_t_element+0x486>
											if(cmd->post!=nullptr){
    100c:	f6 01       	movw	r30, r12
    100e:	e5 80       	ldd	r14, Z+5	; 0x05
    1010:	f6 80       	ldd	r15, Z+6	; 0x06
    1012:	e1 14       	cp	r14, r1
    1014:	f1 04       	cpc	r15, r1
    1016:	d9 f0       	breq	.+54     	; 0x104e <_ZN9cmdParser7resolveEP26list_array_uint8_t_element+0x4b4>
												cmd=cmd->post;
												if(cmd->post!=nullptr){

													}{
													cmdHandler__io_set_value_io2_true(CharArrayToInt(cmd));
    1018:	c7 01       	movw	r24, r14
    101a:	37 dd       	rcall	.-1426   	; 0xa8a <_Z14CharArrayToIntP26list_array_uint8_t_element>
    101c:	e9 da       	rcall	.-2606   	; 0x5f0 <_Z33cmdHandler__io_set_value_io2_truei>
    101e:	1a c0       	rjmp	.+52     	; 0x1054 <_ZN9cmdParser7resolveEP26list_array_uint8_t_element+0x4ba>
												}
											}else{

											}
										}else{
											if(match(cmd, cmd_false, cmd_false_size)){
    1020:	25 e0       	ldi	r18, 0x05	; 5
    1022:	44 e0       	ldi	r20, 0x04	; 4
    1024:	51 e0       	ldi	r21, 0x01	; 1
    1026:	b6 01       	movw	r22, r12
    1028:	c8 01       	movw	r24, r16
    102a:	02 dd       	rcall	.-1532   	; 0xa30 <_ZN9cmdParser5matchEP26list_array_uint8_t_elementPKhh>
    102c:	88 23       	and	r24, r24
    102e:	51 f0       	breq	.+20     	; 0x1044 <_ZN9cmdParser7resolveEP26list_array_uint8_t_element+0x4aa>
												if(cmd->post!=nullptr){
    1030:	f6 01       	movw	r30, r12
    1032:	e5 80       	ldd	r14, Z+5	; 0x05
    1034:	f6 80       	ldd	r15, Z+6	; 0x06
    1036:	e1 14       	cp	r14, r1
    1038:	f1 04       	cpc	r15, r1
    103a:	59 f0       	breq	.+22     	; 0x1052 <_ZN9cmdParser7resolveEP26list_array_uint8_t_element+0x4b8>
													cmd=cmd->post;
													if(cmd->post!=nullptr){

														}{
														cmdHandler__io_set_value_io2_false(CharArrayToInt(cmd));
    103c:	c7 01       	movw	r24, r14
    103e:	25 dd       	rcall	.-1462   	; 0xa8a <_Z14CharArrayToIntP26list_array_uint8_t_element>
    1040:	fe da       	rcall	.-2564   	; 0x63e <_Z34cmdHandler__io_set_value_io2_falsei>
    1042:	08 c0       	rjmp	.+16     	; 0x1054 <_ZN9cmdParser7resolveEP26list_array_uint8_t_element+0x4ba>
													}
												}else{

												}
											}else{
												cmdHandler__io_set_value_io2(CharArrayToInt(cmd));
    1044:	c6 01       	movw	r24, r12
    1046:	21 dd       	rcall	.-1470   	; 0xa8a <_Z14CharArrayToIntP26list_array_uint8_t_element>
    1048:	f4 d9       	rcall	.-3096   	; 0x432 <_Z28cmdHandler__io_set_value_io2i>
										//gibts net
									}
								}
								if(match(cmd, cmd_io2, cmd_io2_size)){
									if(cmd->post!=nullptr){
										cmd=cmd->post;
    104a:	76 01       	movw	r14, r12
    104c:	03 c0       	rjmp	.+6      	; 0x1054 <_ZN9cmdParser7resolveEP26list_array_uint8_t_element+0x4ba>
    104e:	76 01       	movw	r14, r12
    1050:	01 c0       	rjmp	.+2      	; 0x1054 <_ZN9cmdParser7resolveEP26list_array_uint8_t_element+0x4ba>
    1052:	76 01       	movw	r14, r12
										
									}else{
										//gibts net
									}
								}
								if(match(cmd, cmd_io3, cmd_io3_size)){
    1054:	23 e0       	ldi	r18, 0x03	; 3
    1056:	45 e1       	ldi	r20, 0x15	; 21
    1058:	51 e0       	ldi	r21, 0x01	; 1
    105a:	b7 01       	movw	r22, r14
    105c:	c8 01       	movw	r24, r16
    105e:	e8 dc       	rcall	.-1584   	; 0xa30 <_ZN9cmdParser5matchEP26list_array_uint8_t_elementPKhh>
    1060:	88 23       	and	r24, r24
    1062:	69 f1       	breq	.+90     	; 0x10be <_ZN9cmdParser7resolveEP26list_array_uint8_t_element+0x524>
									if(cmd->post!=nullptr){
    1064:	f7 01       	movw	r30, r14
    1066:	e5 80       	ldd	r14, Z+5	; 0x05
    1068:	f6 80       	ldd	r15, Z+6	; 0x06
    106a:	e1 14       	cp	r14, r1
    106c:	f1 04       	cpc	r15, r1
    106e:	39 f1       	breq	.+78     	; 0x10be <_ZN9cmdParser7resolveEP26list_array_uint8_t_element+0x524>
										cmd=cmd->post;
										if(match(cmd, cmd_true, cmd_true_size)){
    1070:	24 e0       	ldi	r18, 0x04	; 4
    1072:	49 e0       	ldi	r20, 0x09	; 9
    1074:	51 e0       	ldi	r21, 0x01	; 1
    1076:	b7 01       	movw	r22, r14
    1078:	c8 01       	movw	r24, r16
    107a:	da dc       	rcall	.-1612   	; 0xa30 <_ZN9cmdParser5matchEP26list_array_uint8_t_elementPKhh>
    107c:	88 23       	and	r24, r24
    107e:	51 f0       	breq	.+20     	; 0x1094 <_ZN9cmdParser7resolveEP26list_array_uint8_t_element+0x4fa>
											if(cmd->post!=nullptr){
    1080:	f7 01       	movw	r30, r14
    1082:	c5 80       	ldd	r12, Z+5	; 0x05
    1084:	d6 80       	ldd	r13, Z+6	; 0x06
    1086:	c1 14       	cp	r12, r1
    1088:	d1 04       	cpc	r13, r1
    108a:	21 f0       	breq	.+8      	; 0x1094 <_ZN9cmdParser7resolveEP26list_array_uint8_t_element+0x4fa>
												cmd=cmd->post;
												if(cmd->post!=nullptr){

													}{
													cmdHandler__io_set_value_io3_true(CharArrayToInt(cmd));
    108c:	c6 01       	movw	r24, r12
    108e:	fd dc       	rcall	.-1542   	; 0xa8a <_Z14CharArrayToIntP26list_array_uint8_t_element>
    1090:	fd da       	rcall	.-2566   	; 0x68c <_Z33cmdHandler__io_set_value_io3_truei>
								if(match(cmd, cmd_io3, cmd_io3_size)){
									if(cmd->post!=nullptr){
										cmd=cmd->post;
										if(match(cmd, cmd_true, cmd_true_size)){
											if(cmd->post!=nullptr){
												cmd=cmd->post;
    1092:	76 01       	movw	r14, r12
												}
												}else{

											}
										}
										if(match(cmd, cmd_false, cmd_false_size)){
    1094:	25 e0       	ldi	r18, 0x05	; 5
    1096:	44 e0       	ldi	r20, 0x04	; 4
    1098:	51 e0       	ldi	r21, 0x01	; 1
    109a:	b7 01       	movw	r22, r14
    109c:	c8 01       	movw	r24, r16
    109e:	c8 dc       	rcall	.-1648   	; 0xa30 <_ZN9cmdParser5matchEP26list_array_uint8_t_elementPKhh>
    10a0:	88 23       	and	r24, r24
    10a2:	69 f0       	breq	.+26     	; 0x10be <_ZN9cmdParser7resolveEP26list_array_uint8_t_element+0x524>
											if(cmd->post!=nullptr){
    10a4:	f7 01       	movw	r30, r14
    10a6:	85 81       	ldd	r24, Z+5	; 0x05
    10a8:	96 81       	ldd	r25, Z+6	; 0x06
    10aa:	00 97       	sbiw	r24, 0x00	; 0
    10ac:	41 f0       	breq	.+16     	; 0x10be <_ZN9cmdParser7resolveEP26list_array_uint8_t_element+0x524>
												cmd=cmd->post;
												if(cmd->post!=nullptr){

													}{
													cmdHandler__io_set_value_io3_false(CharArrayToInt(cmd));
    10ae:	ed dc       	rcall	.-1574   	; 0xa8a <_Z14CharArrayToIntP26list_array_uint8_t_element>
    10b0:	14 db       	rcall	.-2520   	; 0x6da <_Z34cmdHandler__io_set_value_io3_falsei>
    10b2:	05 c0       	rjmp	.+10     	; 0x10be <_ZN9cmdParser7resolveEP26list_array_uint8_t_element+0x524>
										//gibts net
									}
								}
							}else{
								
								cmdHandler__io_set_value();
    10b4:	bd d9       	rcall	.-3206   	; 0x430 <_Z24cmdHandler__io_set_valuev>
    10b6:	03 c0       	rjmp	.+6      	; 0x10be <_ZN9cmdParser7resolveEP26list_array_uint8_t_element+0x524>
							}
						}
					}else{
						cmdHandler__io_set();
    10b8:	ba d9       	rcall	.-3212   	; 0x42e <_Z18cmdHandler__io_setv>
    10ba:	01 c0       	rjmp	.+2      	; 0x10be <_ZN9cmdParser7resolveEP26list_array_uint8_t_element+0x524>
					}
				}
			}else{
				cmdHandler__io();
    10bc:	b7 d9       	rcall	.-3218   	; 0x42c <_Z14cmdHandler__iov>
			}

		}
	}
	serial_out0(nack);
    10be:	85 e1       	ldi	r24, 0x15	; 21
    10c0:	b1 d5       	rcall	.+2914   	; 0x1c24 <_Z11serial_out0h>
delete cmdlist;
    10c2:	20 97       	sbiw	r28, 0x00	; 0
    10c4:	21 f0       	breq	.+8      	; 0x10ce <_ZN9cmdParser7resolveEP26list_array_uint8_t_element+0x534>
    10c6:	ce 01       	movw	r24, r28
    10c8:	30 d2       	rcall	.+1120   	; 0x152a <_ZN26list_array_uint8_t_elementD1Ev>
    10ca:	ce 01       	movw	r24, r28
    10cc:	ef d4       	rcall	.+2526   	; 0x1aac <_ZdlPv>

}
    10ce:	df 91       	pop	r29
    10d0:	cf 91       	pop	r28
    10d2:	1f 91       	pop	r17
    10d4:	0f 91       	pop	r16
    10d6:	ff 90       	pop	r15
    10d8:	ef 90       	pop	r14
    10da:	df 90       	pop	r13
    10dc:	cf 90       	pop	r12
    10de:	08 95       	ret

000010e0 <_ZN9cmdParser5parseEv>:
		InBufferUart0pointer=0;
		parser_flag=false;
	}
	
}
void cmdParser::parse(){
    10e0:	3f 92       	push	r3
    10e2:	4f 92       	push	r4
    10e4:	5f 92       	push	r5
    10e6:	6f 92       	push	r6
    10e8:	7f 92       	push	r7
    10ea:	8f 92       	push	r8
    10ec:	9f 92       	push	r9
    10ee:	af 92       	push	r10
    10f0:	bf 92       	push	r11
    10f2:	cf 92       	push	r12
    10f4:	df 92       	push	r13
    10f6:	ef 92       	push	r14
    10f8:	ff 92       	push	r15
    10fa:	0f 93       	push	r16
    10fc:	1f 93       	push	r17
    10fe:	cf 93       	push	r28
    1100:	df 93       	push	r29
    1102:	cd b7       	in	r28, 0x3d	; 61
    1104:	de b7       	in	r29, 0x3e	; 62
    1106:	69 97       	sbiw	r28, 0x19	; 25
    1108:	0f b6       	in	r0, 0x3f	; 63
    110a:	f8 94       	cli
    110c:	de bf       	out	0x3e, r29	; 62
    110e:	0f be       	out	0x3f, r0	; 63
    1110:	cd bf       	out	0x3d, r28	; 61
    1112:	5c 01       	movw	r10, r24



	uint8_t i=0;
	
	uint8_t current_command[25]={};
    1114:	fe 01       	movw	r30, r28
    1116:	31 96       	adiw	r30, 0x01	; 1
    1118:	89 e1       	ldi	r24, 0x19	; 25
    111a:	df 01       	movw	r26, r30
    111c:	1d 92       	st	X+, r1
    111e:	8a 95       	dec	r24
    1120:	e9 f7       	brne	.-6      	; 0x111c <_ZN9cmdParser5parseEv+0x3c>
	uint8_t* p_current_command = current_command;
	list_array_uint8_t_element* cmdlist;
	list_array_uint8_t_element* last_element= cmdlist;
	bool firstelement=true;
	while(i<InBufferUart0pointer-1){
    1122:	80 91 be 05 	lds	r24, 0x05BE	; 0x8005be <InBufferUart0pointer>
    1126:	90 e0       	ldi	r25, 0x00	; 0
    1128:	01 97       	sbiw	r24, 0x01	; 1
    112a:	18 16       	cp	r1, r24
    112c:	19 06       	cpc	r1, r25
    112e:	0c f4       	brge	.+2      	; 0x1132 <_ZN9cmdParser5parseEv+0x52>
    1130:	3f c0       	rjmp	.+126    	; 0x11b0 <_ZN9cmdParser5parseEv+0xd0>
    1132:	5b c0       	rjmp	.+182    	; 0x11ea <_ZN9cmdParser5parseEv+0x10a>
		uint8_t  j=0;
		j=0;
		while(InBufferUart0[i]!=space && i<InBufferUart0pointer-1){
    1134:	1d 2d       	mov	r17, r13
			p_current_command[j]=InBufferUart0[i];
    1136:	f7 01       	movw	r30, r14
    1138:	e1 0f       	add	r30, r17
    113a:	f1 1d       	adc	r31, r1
    113c:	20 83       	st	Z, r18
			j++;
    113e:	1f 5f       	subi	r17, 0xFF	; 255
			i++;
    1140:	01 2f       	mov	r16, r17
    1142:	03 0f       	add	r16, r19
	list_array_uint8_t_element* last_element= cmdlist;
	bool firstelement=true;
	while(i<InBufferUart0pointer-1){
		uint8_t  j=0;
		j=0;
		while(InBufferUart0[i]!=space && i<InBufferUart0pointer-1){
    1144:	e0 2f       	mov	r30, r16
    1146:	f0 e0       	ldi	r31, 0x00	; 0
    1148:	df 01       	movw	r26, r30
    114a:	a1 54       	subi	r26, 0x41	; 65
    114c:	ba 4f       	sbci	r27, 0xFA	; 250
    114e:	2c 91       	ld	r18, X
    1150:	20 32       	cpi	r18, 0x20	; 32
    1152:	31 f0       	breq	.+12     	; 0x1160 <_ZN9cmdParser5parseEv+0x80>
    1154:	e8 17       	cp	r30, r24
    1156:	f9 07       	cpc	r31, r25
    1158:	74 f3       	brlt	.-36     	; 0x1136 <_ZN9cmdParser5parseEv+0x56>
    115a:	02 c0       	rjmp	.+4      	; 0x1160 <_ZN9cmdParser5parseEv+0x80>
    115c:	03 2f       	mov	r16, r19
    115e:	1d 2d       	mov	r17, r13
			p_current_command[j]=InBufferUart0[i];
			j++;
			i++;
		}
		if(firstelement){
    1160:	66 23       	and	r22, r22
    1162:	61 f0       	breq	.+24     	; 0x117c <_ZN9cmdParser5parseEv+0x9c>
			last_element = new list_array_uint8_t_element(p_current_command, j);
    1164:	87 e0       	ldi	r24, 0x07	; 7
    1166:	90 e0       	ldi	r25, 0x00	; 0
    1168:	9f d4       	rcall	.+2366   	; 0x1aa8 <_Znwj>
    116a:	98 2e       	mov	r9, r24
    116c:	c9 2e       	mov	r12, r25
    116e:	41 2f       	mov	r20, r17
    1170:	65 2d       	mov	r22, r5
    1172:	76 2d       	mov	r23, r6
    1174:	b1 d1       	rcall	.+866    	; 0x14d8 <_ZN26list_array_uint8_t_elementC1EPhh>
    1176:	79 2c       	mov	r7, r9
    1178:	8c 2c       	mov	r8, r12
    117a:	0d c0       	rjmp	.+26     	; 0x1196 <_ZN9cmdParser5parseEv+0xb6>
			cmdlist= last_element;
			firstelement=false;
		}else{
			last_element = new list_array_uint8_t_element(last_element, p_current_command, j);
    117c:	87 e0       	ldi	r24, 0x07	; 7
    117e:	90 e0       	ldi	r25, 0x00	; 0
    1180:	93 d4       	rcall	.+2342   	; 0x1aa8 <_Znwj>
    1182:	38 2e       	mov	r3, r24
    1184:	49 2e       	mov	r4, r25
    1186:	21 2f       	mov	r18, r17
    1188:	45 2d       	mov	r20, r5
    118a:	56 2d       	mov	r21, r6
    118c:	67 2d       	mov	r22, r7
    118e:	78 2d       	mov	r23, r8
    1190:	77 d1       	rcall	.+750    	; 0x1480 <_ZN26list_array_uint8_t_elementC1EPS_Phh>
    1192:	73 2c       	mov	r7, r3
    1194:	84 2c       	mov	r8, r4
		}
		

		i++;
    1196:	31 e0       	ldi	r19, 0x01	; 1
    1198:	30 0f       	add	r19, r16
	uint8_t current_command[25]={};
	uint8_t* p_current_command = current_command;
	list_array_uint8_t_element* cmdlist;
	list_array_uint8_t_element* last_element= cmdlist;
	bool firstelement=true;
	while(i<InBufferUart0pointer-1){
    119a:	80 91 be 05 	lds	r24, 0x05BE	; 0x8005be <InBufferUart0pointer>
    119e:	90 e0       	ldi	r25, 0x00	; 0
    11a0:	01 97       	sbiw	r24, 0x01	; 1
    11a2:	6d 2d       	mov	r22, r13
    11a4:	43 2f       	mov	r20, r19
    11a6:	50 e0       	ldi	r21, 0x00	; 0
    11a8:	48 17       	cp	r20, r24
    11aa:	59 07       	cpc	r21, r25
    11ac:	74 f0       	brlt	.+28     	; 0x11ca <_ZN9cmdParser5parseEv+0xea>
    11ae:	1d c0       	rjmp	.+58     	; 0x11ea <_ZN9cmdParser5parseEv+0x10a>
    11b0:	91 2c       	mov	r9, r1
    11b2:	c1 2c       	mov	r12, r1
    11b4:	79 2c       	mov	r7, r9
    11b6:	8c 2c       	mov	r8, r12
    11b8:	61 e0       	ldi	r22, 0x01	; 1
    11ba:	30 e0       	ldi	r19, 0x00	; 0
		uint8_t  j=0;
		j=0;
		while(InBufferUart0[i]!=space && i<InBufferUart0pointer-1){
    11bc:	d1 2c       	mov	r13, r1
			p_current_command[j]=InBufferUart0[i];
    11be:	ae 01       	movw	r20, r28
    11c0:	4f 5f       	subi	r20, 0xFF	; 255
    11c2:	5f 4f       	sbci	r21, 0xFF	; 255
    11c4:	7a 01       	movw	r14, r20
    11c6:	54 2e       	mov	r5, r20
    11c8:	6f 2c       	mov	r6, r15
	list_array_uint8_t_element* last_element= cmdlist;
	bool firstelement=true;
	while(i<InBufferUart0pointer-1){
		uint8_t  j=0;
		j=0;
		while(InBufferUart0[i]!=space && i<InBufferUart0pointer-1){
    11ca:	43 2f       	mov	r20, r19
    11cc:	50 e0       	ldi	r21, 0x00	; 0
    11ce:	fa 01       	movw	r30, r20
    11d0:	e1 54       	subi	r30, 0x41	; 65
    11d2:	fa 4f       	sbci	r31, 0xFA	; 250
    11d4:	20 81       	ld	r18, Z
    11d6:	20 32       	cpi	r18, 0x20	; 32
    11d8:	09 f4       	brne	.+2      	; 0x11dc <_ZN9cmdParser5parseEv+0xfc>
    11da:	c0 cf       	rjmp	.-128    	; 0x115c <_ZN9cmdParser5parseEv+0x7c>
    11dc:	48 17       	cp	r20, r24
    11de:	59 07       	cpc	r21, r25
    11e0:	0c f4       	brge	.+2      	; 0x11e4 <_ZN9cmdParser5parseEv+0x104>
    11e2:	a8 cf       	rjmp	.-176    	; 0x1134 <_ZN9cmdParser5parseEv+0x54>
    11e4:	03 2f       	mov	r16, r19
    11e6:	1d 2d       	mov	r17, r13
    11e8:	bb cf       	rjmp	.-138    	; 0x1160 <_ZN9cmdParser5parseEv+0x80>
		}
		

		i++;
	}
	resolve(cmdlist);
    11ea:	69 2d       	mov	r22, r9
    11ec:	7c 2d       	mov	r23, r12
    11ee:	c5 01       	movw	r24, r10
    11f0:	d4 dc       	rcall	.-1624   	; 0xb9a <_ZN9cmdParser7resolveEP26list_array_uint8_t_element>
	InBufferUart0pointer=0;
    11f2:	10 92 be 05 	sts	0x05BE, r1	; 0x8005be <InBufferUart0pointer>
	serial_out0(eot);
    11f6:	8d e0       	ldi	r24, 0x0D	; 13
    11f8:	15 d5       	rcall	.+2602   	; 0x1c24 <_Z11serial_out0h>

	serial_out0(rtr);
    11fa:	8d e0       	ldi	r24, 0x0D	; 13
    11fc:	13 d5       	rcall	.+2598   	; 0x1c24 <_Z11serial_out0h>
}
    11fe:	69 96       	adiw	r28, 0x19	; 25
    1200:	0f b6       	in	r0, 0x3f	; 63
    1202:	f8 94       	cli
    1204:	de bf       	out	0x3e, r29	; 62
    1206:	0f be       	out	0x3f, r0	; 63
    1208:	cd bf       	out	0x3d, r28	; 61
    120a:	df 91       	pop	r29
    120c:	cf 91       	pop	r28
    120e:	1f 91       	pop	r17
    1210:	0f 91       	pop	r16
    1212:	ff 90       	pop	r15
    1214:	ef 90       	pop	r14
    1216:	df 90       	pop	r13
    1218:	cf 90       	pop	r12
    121a:	bf 90       	pop	r11
    121c:	af 90       	pop	r10
    121e:	9f 90       	pop	r9
    1220:	8f 90       	pop	r8
    1222:	7f 90       	pop	r7
    1224:	6f 90       	pop	r6
    1226:	5f 90       	pop	r5
    1228:	4f 90       	pop	r4
    122a:	3f 90       	pop	r3
    122c:	08 95       	ret

0000122e <_ZN9cmdParser11checkparserEv>:
#include "cmdParser.h"
#include "cmdHandler.h"
#include <string.h>
#include "uart.h"

void cmdParser::checkparser(){
    122e:	cf 93       	push	r28
    1230:	df 93       	push	r29
	if(parser_flag){
    1232:	fc 01       	movw	r30, r24
    1234:	20 81       	ld	r18, Z
    1236:	22 23       	and	r18, r18
    1238:	29 f0       	breq	.+10     	; 0x1244 <_ZN9cmdParser11checkparserEv+0x16>
    123a:	ec 01       	movw	r28, r24
		parse();
    123c:	51 df       	rcall	.-350    	; 0x10e0 <_ZN9cmdParser5parseEv>
		InBufferUart0pointer=0;
    123e:	10 92 be 05 	sts	0x05BE, r1	; 0x8005be <InBufferUart0pointer>
		parser_flag=false;
    1242:	18 82       	st	Y, r1
	}
	
}
    1244:	df 91       	pop	r29
    1246:	cf 91       	pop	r28
    1248:	08 95       	ret

0000124a <_Z14intToCharArrayi>:
			}
		}
	}
	return result;
}
list_array_uint8_t_element* intToCharArray(int16_t value){
    124a:	ef 92       	push	r14
    124c:	ff 92       	push	r15
    124e:	0f 93       	push	r16
    1250:	1f 93       	push	r17
    1252:	cf 93       	push	r28
    1254:	df 93       	push	r29
    1256:	00 d0       	rcall	.+0      	; 0x1258 <_Z14intToCharArrayi+0xe>
    1258:	00 d0       	rcall	.+0      	; 0x125a <_Z14intToCharArrayi+0x10>
    125a:	cd b7       	in	r28, 0x3d	; 61
    125c:	de b7       	in	r29, 0x3e	; 62
    125e:	fc 01       	movw	r30, r24
	uint8_t result[6]={0,0,0,0,0,0};
    1260:	9e 01       	movw	r18, r28
    1262:	2f 5f       	subi	r18, 0xFF	; 255
    1264:	3f 4f       	sbci	r19, 0xFF	; 255
    1266:	86 e0       	ldi	r24, 0x06	; 6
    1268:	d9 01       	movw	r26, r18
    126a:	1d 92       	st	X+, r1
    126c:	8a 95       	dec	r24
    126e:	e9 f7       	brne	.-6      	; 0x126a <_Z14intToCharArrayi+0x20>
	uint8_t cnt=0;
	if(value<0){
    1270:	ff 23       	and	r31, r31
    1272:	54 f5       	brge	.+84     	; 0x12c8 <_Z14intToCharArrayi+0x7e>
		value*=-1;
    1274:	f1 95       	neg	r31
    1276:	e1 95       	neg	r30
    1278:	f1 09       	sbc	r31, r1
		result[cnt]='-';
    127a:	8d e2       	ldi	r24, 0x2D	; 45
    127c:	89 83       	std	Y+1, r24	; 0x01
		cnt++;
    127e:	11 e0       	ldi	r17, 0x01	; 1
    1280:	24 c0       	rjmp	.+72     	; 0x12ca <_Z14intToCharArrayi+0x80>
	}
	bool greater0=false;
	for(int16_t i=10000; i>0 && cnt<6; i/=10){
		uint8_t temp=value/i;
    1282:	cf 01       	movw	r24, r30
    1284:	b9 01       	movw	r22, r18
    1286:	41 d5       	rcall	.+2690   	; 0x1d0a <__divmodhi4>
		if(temp>0){
    1288:	61 11       	cpse	r22, r1
    128a:	02 c0       	rjmp	.+4      	; 0x1290 <_Z14intToCharArrayi+0x46>
			greater0=true;
		}
		if(greater0){
    128c:	44 23       	and	r20, r20
    128e:	91 f0       	breq	.+36     	; 0x12b4 <_Z14intToCharArrayi+0x6a>
			value-=temp*i;
    1290:	62 9f       	mul	r22, r18
    1292:	c0 01       	movw	r24, r0
    1294:	63 9f       	mul	r22, r19
    1296:	90 0d       	add	r25, r0
    1298:	11 24       	eor	r1, r1
    129a:	e8 1b       	sub	r30, r24
    129c:	f9 0b       	sbc	r31, r25
			result[cnt]='0' + temp;
    129e:	a1 e0       	ldi	r26, 0x01	; 1
    12a0:	b0 e0       	ldi	r27, 0x00	; 0
    12a2:	ac 0f       	add	r26, r28
    12a4:	bd 1f       	adc	r27, r29
    12a6:	a1 0f       	add	r26, r17
    12a8:	b1 1d       	adc	r27, r1
    12aa:	90 e3       	ldi	r25, 0x30	; 48
    12ac:	96 0f       	add	r25, r22
    12ae:	9c 93       	st	X, r25
			cnt++;
    12b0:	1f 5f       	subi	r17, 0xFF	; 255
    12b2:	40 2f       	mov	r20, r16
		value*=-1;
		result[cnt]='-';
		cnt++;
	}
	bool greater0=false;
	for(int16_t i=10000; i>0 && cnt<6; i/=10){
    12b4:	c9 01       	movw	r24, r18
    12b6:	b7 01       	movw	r22, r14
    12b8:	28 d5       	rcall	.+2640   	; 0x1d0a <__divmodhi4>
    12ba:	9b 01       	movw	r18, r22
    12bc:	16 16       	cp	r1, r22
    12be:	17 06       	cpc	r1, r23
    12c0:	74 f4       	brge	.+28     	; 0x12de <_Z14intToCharArrayi+0x94>
    12c2:	16 30       	cpi	r17, 0x06	; 6
    12c4:	f0 f2       	brcs	.-68     	; 0x1282 <_Z14intToCharArrayi+0x38>
    12c6:	0b c0       	rjmp	.+22     	; 0x12de <_Z14intToCharArrayi+0x94>
	}
	return result;
}
list_array_uint8_t_element* intToCharArray(int16_t value){
	uint8_t result[6]={0,0,0,0,0,0};
	uint8_t cnt=0;
    12c8:	10 e0       	ldi	r17, 0x00	; 0
			}
		}
	}
	return result;
}
list_array_uint8_t_element* intToCharArray(int16_t value){
    12ca:	20 e1       	ldi	r18, 0x10	; 16
    12cc:	37 e2       	ldi	r19, 0x27	; 39
    12ce:	40 e0       	ldi	r20, 0x00	; 0
    12d0:	01 e0       	ldi	r16, 0x01	; 1
		value*=-1;
		result[cnt]='-';
		cnt++;
	}
	bool greater0=false;
	for(int16_t i=10000; i>0 && cnt<6; i/=10){
    12d2:	0f 2e       	mov	r0, r31
    12d4:	fa e0       	ldi	r31, 0x0A	; 10
    12d6:	ef 2e       	mov	r14, r31
    12d8:	f1 2c       	mov	r15, r1
    12da:	f0 2d       	mov	r31, r0
    12dc:	d2 cf       	rjmp	.-92     	; 0x1282 <_Z14intToCharArrayi+0x38>
			cnt++;
		}
	
	}

	list_array_uint8_t_element* resultelement = new list_array_uint8_t_element(result, cnt);
    12de:	87 e0       	ldi	r24, 0x07	; 7
    12e0:	90 e0       	ldi	r25, 0x00	; 0
    12e2:	e2 d3       	rcall	.+1988   	; 0x1aa8 <_Znwj>
    12e4:	7c 01       	movw	r14, r24
    12e6:	41 2f       	mov	r20, r17
    12e8:	be 01       	movw	r22, r28
    12ea:	6f 5f       	subi	r22, 0xFF	; 255
    12ec:	7f 4f       	sbci	r23, 0xFF	; 255
    12ee:	f4 d0       	rcall	.+488    	; 0x14d8 <_ZN26list_array_uint8_t_elementC1EPhh>
	return resultelement;
    12f0:	c7 01       	movw	r24, r14
    12f2:	26 96       	adiw	r28, 0x06	; 6
    12f4:	0f b6       	in	r0, 0x3f	; 63
    12f6:	f8 94       	cli
    12f8:	de bf       	out	0x3e, r29	; 62
    12fa:	0f be       	out	0x3f, r0	; 63
    12fc:	cd bf       	out	0x3d, r28	; 61
    12fe:	df 91       	pop	r29
    1300:	cf 91       	pop	r28
    1302:	1f 91       	pop	r17
    1304:	0f 91       	pop	r16
    1306:	ff 90       	pop	r15
    1308:	ef 90       	pop	r14
    130a:	08 95       	ret

0000130c <_ZN6io_pin3getEv>:


 io_pin::~io_pin(){

 }
 bool io_pin::get(){
    130c:	fc 01       	movw	r30, r24
	switch(config){
    130e:	80 81       	ld	r24, Z
    1310:	88 23       	and	r24, r24
    1312:	19 f0       	breq	.+6      	; 0x131a <_ZN6io_pin3getEv+0xe>
    1314:	81 30       	cpi	r24, 0x01	; 1
    1316:	81 f0       	breq	.+32     	; 0x1338 <_ZN6io_pin3getEv+0x2c>
    1318:	1e c0       	rjmp	.+60     	; 0x1356 <_ZN6io_pin3getEv+0x4a>
		case input:{
			if(*PORT_IN & (1<<PIN)){
    131a:	a1 81       	ldd	r26, Z+1	; 0x01
    131c:	b2 81       	ldd	r27, Z+2	; 0x02
    131e:	2c 91       	ld	r18, X
    1320:	30 e0       	ldi	r19, 0x00	; 0
    1322:	c9 01       	movw	r24, r18
    1324:	07 80       	ldd	r0, Z+7	; 0x07
    1326:	02 c0       	rjmp	.+4      	; 0x132c <_ZN6io_pin3getEv+0x20>
    1328:	95 95       	asr	r25
    132a:	87 95       	ror	r24
    132c:	0a 94       	dec	r0
    132e:	e2 f7       	brpl	.-8      	; 0x1328 <_ZN6io_pin3getEv+0x1c>
    1330:	21 e0       	ldi	r18, 0x01	; 1
    1332:	82 27       	eor	r24, r18
    1334:	81 70       	andi	r24, 0x01	; 1
    1336:	08 95       	ret
			}else{
				return true;
			}
		}break;
		case output:{
			if(*PORT_OUT & (1<<PIN)){
    1338:	a3 81       	ldd	r26, Z+3	; 0x03
    133a:	b4 81       	ldd	r27, Z+4	; 0x04
    133c:	2c 91       	ld	r18, X
    133e:	30 e0       	ldi	r19, 0x00	; 0
    1340:	c9 01       	movw	r24, r18
    1342:	07 80       	ldd	r0, Z+7	; 0x07
    1344:	02 c0       	rjmp	.+4      	; 0x134a <_ZN6io_pin3getEv+0x3e>
    1346:	95 95       	asr	r25
    1348:	87 95       	ror	r24
    134a:	0a 94       	dec	r0
    134c:	e2 f7       	brpl	.-8      	; 0x1346 <_ZN6io_pin3getEv+0x3a>
    134e:	21 e0       	ldi	r18, 0x01	; 1
    1350:	82 27       	eor	r24, r18
    1352:	81 70       	andi	r24, 0x01	; 1
    1354:	08 95       	ret
		}break;
		case toggle:{
			
		}
	}
	return false;
    1356:	80 e0       	ldi	r24, 0x00	; 0
 }
    1358:	08 95       	ret

0000135a <_ZN6io_pin3setEb>:
 void io_pin::set(bool state){
    135a:	fc 01       	movw	r30, r24
 	switch(config){
    135c:	80 81       	ld	r24, Z
    135e:	81 30       	cpi	r24, 0x01	; 1
    1360:	f1 f4       	brne	.+60     	; 0x139e <_ZN6io_pin3setEb+0x44>
	 	case input:{
		 	
	 	}break;
	 	case output:{
		 	if(state){
    1362:	66 23       	and	r22, r22
    1364:	79 f0       	breq	.+30     	; 0x1384 <_ZN6io_pin3setEb+0x2a>
				*PORT_OUT &= ~(1<<PIN);
    1366:	a3 81       	ldd	r26, Z+3	; 0x03
    1368:	b4 81       	ldd	r27, Z+4	; 0x04
    136a:	2c 91       	ld	r18, X
    136c:	81 e0       	ldi	r24, 0x01	; 1
    136e:	90 e0       	ldi	r25, 0x00	; 0
    1370:	07 80       	ldd	r0, Z+7	; 0x07
    1372:	02 c0       	rjmp	.+4      	; 0x1378 <_ZN6io_pin3setEb+0x1e>
    1374:	88 0f       	add	r24, r24
    1376:	99 1f       	adc	r25, r25
    1378:	0a 94       	dec	r0
    137a:	e2 f7       	brpl	.-8      	; 0x1374 <_ZN6io_pin3setEb+0x1a>
    137c:	80 95       	com	r24
    137e:	82 23       	and	r24, r18
    1380:	8c 93       	st	X, r24
    1382:	08 95       	ret
			}else{
				*PORT_OUT |= 1<<PIN;
    1384:	a3 81       	ldd	r26, Z+3	; 0x03
    1386:	b4 81       	ldd	r27, Z+4	; 0x04
    1388:	2c 91       	ld	r18, X
    138a:	81 e0       	ldi	r24, 0x01	; 1
    138c:	90 e0       	ldi	r25, 0x00	; 0
    138e:	07 80       	ldd	r0, Z+7	; 0x07
    1390:	02 c0       	rjmp	.+4      	; 0x1396 <_ZN6io_pin3setEb+0x3c>
    1392:	88 0f       	add	r24, r24
    1394:	99 1f       	adc	r25, r25
    1396:	0a 94       	dec	r0
    1398:	e2 f7       	brpl	.-8      	; 0x1392 <_ZN6io_pin3setEb+0x38>
    139a:	82 2b       	or	r24, r18
    139c:	8c 93       	st	X, r24
    139e:	08 95       	ret

000013a0 <_ZN6io_pin9setconfigE9io_config>:
	 	case toggle:{
		 	
	 	}
 	}
 }
 void io_pin::setconfig(io_config config){
    13a0:	fc 01       	movw	r30, r24
	this->config=config;
    13a2:	60 83       	st	Z, r22
	switch(config){
    13a4:	61 30       	cpi	r22, 0x01	; 1
    13a6:	01 f1       	breq	.+64     	; 0x13e8 <_ZN6io_pin9setconfigE9io_config+0x48>
    13a8:	18 f0       	brcs	.+6      	; 0x13b0 <_ZN6io_pin9setconfigE9io_config+0x10>
    13aa:	62 30       	cpi	r22, 0x02	; 2
    13ac:	b9 f1       	breq	.+110    	; 0x141c <_ZN6io_pin9setconfigE9io_config+0x7c>
    13ae:	08 95       	ret
		case input:{
			*DDR &= ~(1<<PIN);
    13b0:	a5 81       	ldd	r26, Z+5	; 0x05
    13b2:	b6 81       	ldd	r27, Z+6	; 0x06
    13b4:	3c 91       	ld	r19, X
    13b6:	81 e0       	ldi	r24, 0x01	; 1
    13b8:	90 e0       	ldi	r25, 0x00	; 0
    13ba:	ac 01       	movw	r20, r24
    13bc:	07 80       	ldd	r0, Z+7	; 0x07
    13be:	02 c0       	rjmp	.+4      	; 0x13c4 <_ZN6io_pin9setconfigE9io_config+0x24>
    13c0:	44 0f       	add	r20, r20
    13c2:	55 1f       	adc	r21, r21
    13c4:	0a 94       	dec	r0
    13c6:	e2 f7       	brpl	.-8      	; 0x13c0 <_ZN6io_pin9setconfigE9io_config+0x20>
    13c8:	24 2f       	mov	r18, r20
    13ca:	20 95       	com	r18
    13cc:	23 23       	and	r18, r19
    13ce:	2c 93       	st	X, r18
			*PORT_OUT |= 1<<PIN;
    13d0:	a3 81       	ldd	r26, Z+3	; 0x03
    13d2:	b4 81       	ldd	r27, Z+4	; 0x04
    13d4:	2c 91       	ld	r18, X
    13d6:	07 80       	ldd	r0, Z+7	; 0x07
    13d8:	02 c0       	rjmp	.+4      	; 0x13de <_ZN6io_pin9setconfigE9io_config+0x3e>
    13da:	88 0f       	add	r24, r24
    13dc:	99 1f       	adc	r25, r25
    13de:	0a 94       	dec	r0
    13e0:	e2 f7       	brpl	.-8      	; 0x13da <_ZN6io_pin9setconfigE9io_config+0x3a>
    13e2:	82 2b       	or	r24, r18
    13e4:	8c 93       	st	X, r24
		}break;
    13e6:	08 95       	ret
		case output:{
			*DDR |= 1<<PIN;
    13e8:	a5 81       	ldd	r26, Z+5	; 0x05
    13ea:	b6 81       	ldd	r27, Z+6	; 0x06
    13ec:	4c 91       	ld	r20, X
    13ee:	81 e0       	ldi	r24, 0x01	; 1
    13f0:	90 e0       	ldi	r25, 0x00	; 0
    13f2:	9c 01       	movw	r18, r24
    13f4:	07 80       	ldd	r0, Z+7	; 0x07
    13f6:	02 c0       	rjmp	.+4      	; 0x13fc <_ZN6io_pin9setconfigE9io_config+0x5c>
    13f8:	22 0f       	add	r18, r18
    13fa:	33 1f       	adc	r19, r19
    13fc:	0a 94       	dec	r0
    13fe:	e2 f7       	brpl	.-8      	; 0x13f8 <_ZN6io_pin9setconfigE9io_config+0x58>
    1400:	24 2b       	or	r18, r20
    1402:	2c 93       	st	X, r18
			*PORT_OUT |= (1<<PIN);
    1404:	a3 81       	ldd	r26, Z+3	; 0x03
    1406:	b4 81       	ldd	r27, Z+4	; 0x04
    1408:	2c 91       	ld	r18, X
    140a:	07 80       	ldd	r0, Z+7	; 0x07
    140c:	02 c0       	rjmp	.+4      	; 0x1412 <_ZN6io_pin9setconfigE9io_config+0x72>
    140e:	88 0f       	add	r24, r24
    1410:	99 1f       	adc	r25, r25
    1412:	0a 94       	dec	r0
    1414:	e2 f7       	brpl	.-8      	; 0x140e <_ZN6io_pin9setconfigE9io_config+0x6e>
    1416:	82 2b       	or	r24, r18
    1418:	8c 93       	st	X, r24

		}break;
    141a:	08 95       	ret
		case toggle:{
			*DDR &= ~(1<<PIN);
    141c:	a5 81       	ldd	r26, Z+5	; 0x05
    141e:	b6 81       	ldd	r27, Z+6	; 0x06
    1420:	3c 91       	ld	r19, X
    1422:	81 e0       	ldi	r24, 0x01	; 1
    1424:	90 e0       	ldi	r25, 0x00	; 0
    1426:	ac 01       	movw	r20, r24
    1428:	07 80       	ldd	r0, Z+7	; 0x07
    142a:	02 c0       	rjmp	.+4      	; 0x1430 <_ZN6io_pin9setconfigE9io_config+0x90>
    142c:	44 0f       	add	r20, r20
    142e:	55 1f       	adc	r21, r21
    1430:	0a 94       	dec	r0
    1432:	e2 f7       	brpl	.-8      	; 0x142c <_ZN6io_pin9setconfigE9io_config+0x8c>
    1434:	24 2f       	mov	r18, r20
    1436:	20 95       	com	r18
    1438:	23 23       	and	r18, r19
    143a:	2c 93       	st	X, r18
			*PORT_OUT |= 1<<PIN;
    143c:	a3 81       	ldd	r26, Z+3	; 0x03
    143e:	b4 81       	ldd	r27, Z+4	; 0x04
    1440:	2c 91       	ld	r18, X
    1442:	07 80       	ldd	r0, Z+7	; 0x07
    1444:	02 c0       	rjmp	.+4      	; 0x144a <_ZN6io_pin9setconfigE9io_config+0xaa>
    1446:	88 0f       	add	r24, r24
    1448:	99 1f       	adc	r25, r25
    144a:	0a 94       	dec	r0
    144c:	e2 f7       	brpl	.-8      	; 0x1446 <_ZN6io_pin9setconfigE9io_config+0xa6>
    144e:	82 2b       	or	r24, r18
    1450:	8c 93       	st	X, r24
    1452:	08 95       	ret

00001454 <_ZN6io_pinC1EPVhS1_S1_h9io_config>:
 *
 * Created: 18.10.2017 21:18:04
 *  Author: Flo
 */
 #include "io.h"
 io_pin::io_pin(volatile uint8_t* DDR, volatile uint8_t* PORT_OUT, volatile uint8_t* PORT_IN, uint8_t PIN, io_config config){
    1454:	ef 92       	push	r14
    1456:	0f 93       	push	r16
    1458:	fc 01       	movw	r30, r24
    145a:	81 e0       	ldi	r24, 0x01	; 1
    145c:	82 87       	std	Z+10, r24	; 0x0a
    145e:	13 86       	std	Z+11, r1	; 0x0b
	 this->DDR=DDR;
    1460:	76 83       	std	Z+6, r23	; 0x06
    1462:	65 83       	std	Z+5, r22	; 0x05
	 this->PORT_OUT=PORT_OUT;
    1464:	54 83       	std	Z+4, r21	; 0x04
    1466:	43 83       	std	Z+3, r20	; 0x03
	 this->PORT_IN=PORT_IN;
    1468:	32 83       	std	Z+2, r19	; 0x02
    146a:	21 83       	std	Z+1, r18	; 0x01
	 this->PIN=PIN;
    146c:	07 83       	std	Z+7, r16	; 0x07
	 setconfig(config);
    146e:	6e 2d       	mov	r22, r14
    1470:	cf 01       	movw	r24, r30
    1472:	96 df       	rcall	.-212    	; 0x13a0 <_ZN6io_pin9setconfigE9io_config>
 }
    1474:	0f 91       	pop	r16
    1476:	ef 90       	pop	r14
    1478:	08 95       	ret

0000147a <_ZN6io_pin9getconfigEv>:
		}
	}
 }
 io_config io_pin::getconfig(){
	 return config;
    147a:	fc 01       	movw	r30, r24
    147c:	80 81       	ld	r24, Z
    147e:	08 95       	ret

00001480 <_ZN26list_array_uint8_t_elementC1EPS_Phh>:
}
list_array_uint8_t_element::list_array_uint8_t_element(){
this->pre= nullptr;
this->post=nullptr;
this->data=nullptr;
this->data_size=0;
    1480:	ff 92       	push	r15
    1482:	0f 93       	push	r16
    1484:	1f 93       	push	r17
    1486:	cf 93       	push	r28
    1488:	df 93       	push	r29
    148a:	ec 01       	movw	r28, r24
    148c:	f4 2e       	mov	r15, r20
    148e:	05 2f       	mov	r16, r21
    1490:	12 2f       	mov	r17, r18
    1492:	1e 82       	std	Y+6, r1	; 0x06
    1494:	1d 82       	std	Y+5, r1	; 0x05
    1496:	7c 83       	std	Y+4, r23	; 0x04
    1498:	6b 83       	std	Y+3, r22	; 0x03
    149a:	fb 01       	movw	r30, r22
    149c:	96 83       	std	Z+6, r25	; 0x06
    149e:	85 83       	std	Z+5, r24	; 0x05
    14a0:	82 2f       	mov	r24, r18
    14a2:	90 e0       	ldi	r25, 0x00	; 0
    14a4:	ca d4       	rcall	.+2452   	; 0x1e3a <malloc>
    14a6:	99 83       	std	Y+1, r25	; 0x01
    14a8:	88 83       	st	Y, r24
    14aa:	11 23       	and	r17, r17
    14ac:	71 f0       	breq	.+28     	; 0x14ca <_ZN26list_array_uint8_t_elementC1EPS_Phh+0x4a>
    14ae:	af 2d       	mov	r26, r15
    14b0:	b0 2f       	mov	r27, r16
    14b2:	40 e0       	ldi	r20, 0x00	; 0
    14b4:	50 e0       	ldi	r21, 0x00	; 0
    14b6:	9d 91       	ld	r25, X+
    14b8:	e8 81       	ld	r30, Y
    14ba:	f9 81       	ldd	r31, Y+1	; 0x01
    14bc:	e4 0f       	add	r30, r20
    14be:	f5 1f       	adc	r31, r21
    14c0:	90 83       	st	Z, r25
    14c2:	4f 5f       	subi	r20, 0xFF	; 255
    14c4:	5f 4f       	sbci	r21, 0xFF	; 255
    14c6:	41 17       	cp	r20, r17
    14c8:	b0 f3       	brcs	.-20     	; 0x14b6 <_ZN26list_array_uint8_t_elementC1EPS_Phh+0x36>
    14ca:	1a 83       	std	Y+2, r17	; 0x02
    14cc:	df 91       	pop	r29
    14ce:	cf 91       	pop	r28
    14d0:	1f 91       	pop	r17
    14d2:	0f 91       	pop	r16
    14d4:	ff 90       	pop	r15
    14d6:	08 95       	ret

000014d8 <_ZN26list_array_uint8_t_elementC1EPhh>:
    14d8:	ff 92       	push	r15
    14da:	0f 93       	push	r16
    14dc:	1f 93       	push	r17
    14de:	cf 93       	push	r28
    14e0:	df 93       	push	r29
    14e2:	ec 01       	movw	r28, r24
    14e4:	f6 2e       	mov	r15, r22
    14e6:	07 2f       	mov	r16, r23
    14e8:	14 2f       	mov	r17, r20
    14ea:	1e 82       	std	Y+6, r1	; 0x06
    14ec:	1d 82       	std	Y+5, r1	; 0x05
    14ee:	1c 82       	std	Y+4, r1	; 0x04
    14f0:	1b 82       	std	Y+3, r1	; 0x03
    14f2:	84 2f       	mov	r24, r20
    14f4:	90 e0       	ldi	r25, 0x00	; 0
    14f6:	a1 d4       	rcall	.+2370   	; 0x1e3a <malloc>
    14f8:	99 83       	std	Y+1, r25	; 0x01
    14fa:	88 83       	st	Y, r24
    14fc:	11 23       	and	r17, r17
    14fe:	71 f0       	breq	.+28     	; 0x151c <_ZN26list_array_uint8_t_elementC1EPhh+0x44>
    1500:	af 2d       	mov	r26, r15
    1502:	b0 2f       	mov	r27, r16
    1504:	20 e0       	ldi	r18, 0x00	; 0
    1506:	30 e0       	ldi	r19, 0x00	; 0
    1508:	9d 91       	ld	r25, X+
    150a:	e8 81       	ld	r30, Y
    150c:	f9 81       	ldd	r31, Y+1	; 0x01
    150e:	e2 0f       	add	r30, r18
    1510:	f3 1f       	adc	r31, r19
    1512:	90 83       	st	Z, r25
    1514:	2f 5f       	subi	r18, 0xFF	; 255
    1516:	3f 4f       	sbci	r19, 0xFF	; 255
    1518:	21 17       	cp	r18, r17
    151a:	b0 f3       	brcs	.-20     	; 0x1508 <_ZN26list_array_uint8_t_elementC1EPhh+0x30>
    151c:	1a 83       	std	Y+2, r17	; 0x02
    151e:	df 91       	pop	r29
    1520:	cf 91       	pop	r28
    1522:	1f 91       	pop	r17
    1524:	0f 91       	pop	r16
    1526:	ff 90       	pop	r15
    1528:	08 95       	ret

0000152a <_ZN26list_array_uint8_t_elementD1Ev>:
}
list_array_uint8_t_element::~list_array_uint8_t_element(){
    152a:	cf 93       	push	r28
    152c:	df 93       	push	r29
    152e:	ec 01       	movw	r28, r24
	free(data);
    1530:	88 81       	ld	r24, Y
    1532:	99 81       	ldd	r25, Y+1	; 0x01
    1534:	17 d5       	rcall	.+2606   	; 0x1f64 <free>
	data=nullptr;
    1536:	19 82       	std	Y+1, r1	; 0x01
    1538:	18 82       	st	Y, r1
	if(post!=nullptr){
    153a:	8d 81       	ldd	r24, Y+5	; 0x05
    153c:	9e 81       	ldd	r25, Y+6	; 0x06
    153e:	00 97       	sbiw	r24, 0x00	; 0
    1540:	09 f0       	breq	.+2      	; 0x1544 <_ZN26list_array_uint8_t_elementD1Ev+0x1a>
		post->~list_array_uint8_t_element();
    1542:	f3 df       	rcall	.-26     	; 0x152a <_ZN26list_array_uint8_t_elementD1Ev>
	}
}
    1544:	df 91       	pop	r29
    1546:	cf 91       	pop	r28
    1548:	08 95       	ret

0000154a <_Z7init_iov>:
	io3->pin[4]=new io_pin(&DDRL, &PORTL, &PINL, 2, init_config);
	io3->pin[5]=new io_pin(&DDRL, &PORTL, &PINL, 0, init_config);
	io3->pin[6]=new io_pin(&DDRB, &PORTB, &PINB, 2, init_config);
	io3->pin[7]=new io_pin(&DDRB, &PORTB, &PINB, 0, init_config);
}
void init_ADC(){
    154a:	ef 92       	push	r14
    154c:	0f 93       	push	r16
    154e:	cf 93       	push	r28
    1550:	df 93       	push	r29
    1552:	80 e1       	ldi	r24, 0x10	; 16
    1554:	90 e0       	ldi	r25, 0x00	; 0
    1556:	a8 d2       	rcall	.+1360   	; 0x1aa8 <_Znwj>
    1558:	90 93 73 03 	sts	0x0373, r25	; 0x800373 <io0+0x1>
    155c:	80 93 72 03 	sts	0x0372, r24	; 0x800372 <io0>
    1560:	8e e0       	ldi	r24, 0x0E	; 14
    1562:	90 e0       	ldi	r25, 0x00	; 0
    1564:	a1 d2       	rcall	.+1346   	; 0x1aa8 <_Znwj>
    1566:	ec 01       	movw	r28, r24
    1568:	ee 24       	eor	r14, r14
    156a:	e3 94       	inc	r14
    156c:	01 e0       	ldi	r16, 0x01	; 1
    156e:	26 e2       	ldi	r18, 0x26	; 38
    1570:	30 e0       	ldi	r19, 0x00	; 0
    1572:	48 e2       	ldi	r20, 0x28	; 40
    1574:	50 e0       	ldi	r21, 0x00	; 0
    1576:	67 e2       	ldi	r22, 0x27	; 39
    1578:	70 e0       	ldi	r23, 0x00	; 0
    157a:	6c df       	rcall	.-296    	; 0x1454 <_ZN6io_pinC1EPVhS1_S1_h9io_config>
    157c:	e0 91 72 03 	lds	r30, 0x0372	; 0x800372 <io0>
    1580:	f0 91 73 03 	lds	r31, 0x0373	; 0x800373 <io0+0x1>
    1584:	d1 83       	std	Z+1, r29	; 0x01
    1586:	c0 83       	st	Z, r28
    1588:	8e e0       	ldi	r24, 0x0E	; 14
    158a:	90 e0       	ldi	r25, 0x00	; 0
    158c:	8d d2       	rcall	.+1306   	; 0x1aa8 <_Znwj>
    158e:	ec 01       	movw	r28, r24
    1590:	03 e0       	ldi	r16, 0x03	; 3
    1592:	26 e2       	ldi	r18, 0x26	; 38
    1594:	30 e0       	ldi	r19, 0x00	; 0
    1596:	48 e2       	ldi	r20, 0x28	; 40
    1598:	50 e0       	ldi	r21, 0x00	; 0
    159a:	67 e2       	ldi	r22, 0x27	; 39
    159c:	70 e0       	ldi	r23, 0x00	; 0
    159e:	5a df       	rcall	.-332    	; 0x1454 <_ZN6io_pinC1EPVhS1_S1_h9io_config>
    15a0:	e0 91 72 03 	lds	r30, 0x0372	; 0x800372 <io0>
    15a4:	f0 91 73 03 	lds	r31, 0x0373	; 0x800373 <io0+0x1>
    15a8:	d3 83       	std	Z+3, r29	; 0x03
    15aa:	c2 83       	std	Z+2, r28	; 0x02
    15ac:	8e e0       	ldi	r24, 0x0E	; 14
    15ae:	90 e0       	ldi	r25, 0x00	; 0
    15b0:	7b d2       	rcall	.+1270   	; 0x1aa8 <_Znwj>
    15b2:	ec 01       	movw	r28, r24
    15b4:	05 e0       	ldi	r16, 0x05	; 5
    15b6:	26 e2       	ldi	r18, 0x26	; 38
    15b8:	30 e0       	ldi	r19, 0x00	; 0
    15ba:	48 e2       	ldi	r20, 0x28	; 40
    15bc:	50 e0       	ldi	r21, 0x00	; 0
    15be:	67 e2       	ldi	r22, 0x27	; 39
    15c0:	70 e0       	ldi	r23, 0x00	; 0
    15c2:	48 df       	rcall	.-368    	; 0x1454 <_ZN6io_pinC1EPVhS1_S1_h9io_config>
    15c4:	e0 91 72 03 	lds	r30, 0x0372	; 0x800372 <io0>
    15c8:	f0 91 73 03 	lds	r31, 0x0373	; 0x800373 <io0+0x1>
    15cc:	d5 83       	std	Z+5, r29	; 0x05
    15ce:	c4 83       	std	Z+4, r28	; 0x04
    15d0:	8e e0       	ldi	r24, 0x0E	; 14
    15d2:	90 e0       	ldi	r25, 0x00	; 0
    15d4:	69 d2       	rcall	.+1234   	; 0x1aa8 <_Znwj>
    15d6:	ec 01       	movw	r28, r24
    15d8:	07 e0       	ldi	r16, 0x07	; 7
    15da:	26 e2       	ldi	r18, 0x26	; 38
    15dc:	30 e0       	ldi	r19, 0x00	; 0
    15de:	48 e2       	ldi	r20, 0x28	; 40
    15e0:	50 e0       	ldi	r21, 0x00	; 0
    15e2:	67 e2       	ldi	r22, 0x27	; 39
    15e4:	70 e0       	ldi	r23, 0x00	; 0
    15e6:	36 df       	rcall	.-404    	; 0x1454 <_ZN6io_pinC1EPVhS1_S1_h9io_config>
    15e8:	e0 91 72 03 	lds	r30, 0x0372	; 0x800372 <io0>
    15ec:	f0 91 73 03 	lds	r31, 0x0373	; 0x800373 <io0+0x1>
    15f0:	d7 83       	std	Z+7, r29	; 0x07
    15f2:	c6 83       	std	Z+6, r28	; 0x06
    15f4:	8e e0       	ldi	r24, 0x0E	; 14
    15f6:	90 e0       	ldi	r25, 0x00	; 0
    15f8:	57 d2       	rcall	.+1198   	; 0x1aa8 <_Znwj>
    15fa:	ec 01       	movw	r28, r24
    15fc:	06 e0       	ldi	r16, 0x06	; 6
    15fe:	20 e2       	ldi	r18, 0x20	; 32
    1600:	30 e0       	ldi	r19, 0x00	; 0
    1602:	42 e2       	ldi	r20, 0x22	; 34
    1604:	50 e0       	ldi	r21, 0x00	; 0
    1606:	61 e2       	ldi	r22, 0x21	; 33
    1608:	70 e0       	ldi	r23, 0x00	; 0
    160a:	24 df       	rcall	.-440    	; 0x1454 <_ZN6io_pinC1EPVhS1_S1_h9io_config>
    160c:	e0 91 72 03 	lds	r30, 0x0372	; 0x800372 <io0>
    1610:	f0 91 73 03 	lds	r31, 0x0373	; 0x800373 <io0+0x1>
    1614:	d1 87       	std	Z+9, r29	; 0x09
    1616:	c0 87       	std	Z+8, r28	; 0x08
    1618:	8e e0       	ldi	r24, 0x0E	; 14
    161a:	90 e0       	ldi	r25, 0x00	; 0
    161c:	45 d2       	rcall	.+1162   	; 0x1aa8 <_Znwj>
    161e:	ec 01       	movw	r28, r24
    1620:	04 e0       	ldi	r16, 0x04	; 4
    1622:	20 e2       	ldi	r18, 0x20	; 32
    1624:	30 e0       	ldi	r19, 0x00	; 0
    1626:	42 e2       	ldi	r20, 0x22	; 34
    1628:	50 e0       	ldi	r21, 0x00	; 0
    162a:	61 e2       	ldi	r22, 0x21	; 33
    162c:	70 e0       	ldi	r23, 0x00	; 0
    162e:	12 df       	rcall	.-476    	; 0x1454 <_ZN6io_pinC1EPVhS1_S1_h9io_config>
    1630:	e0 91 72 03 	lds	r30, 0x0372	; 0x800372 <io0>
    1634:	f0 91 73 03 	lds	r31, 0x0373	; 0x800373 <io0+0x1>
    1638:	d3 87       	std	Z+11, r29	; 0x0b
    163a:	c2 87       	std	Z+10, r28	; 0x0a
    163c:	8e e0       	ldi	r24, 0x0E	; 14
    163e:	90 e0       	ldi	r25, 0x00	; 0
    1640:	33 d2       	rcall	.+1126   	; 0x1aa8 <_Znwj>
    1642:	ec 01       	movw	r28, r24
    1644:	02 e0       	ldi	r16, 0x02	; 2
    1646:	20 e2       	ldi	r18, 0x20	; 32
    1648:	30 e0       	ldi	r19, 0x00	; 0
    164a:	42 e2       	ldi	r20, 0x22	; 34
    164c:	50 e0       	ldi	r21, 0x00	; 0
    164e:	61 e2       	ldi	r22, 0x21	; 33
    1650:	70 e0       	ldi	r23, 0x00	; 0
    1652:	00 df       	rcall	.-512    	; 0x1454 <_ZN6io_pinC1EPVhS1_S1_h9io_config>
    1654:	e0 91 72 03 	lds	r30, 0x0372	; 0x800372 <io0>
    1658:	f0 91 73 03 	lds	r31, 0x0373	; 0x800373 <io0+0x1>
    165c:	d5 87       	std	Z+13, r29	; 0x0d
    165e:	c4 87       	std	Z+12, r28	; 0x0c
    1660:	8e e0       	ldi	r24, 0x0E	; 14
    1662:	90 e0       	ldi	r25, 0x00	; 0
    1664:	21 d2       	rcall	.+1090   	; 0x1aa8 <_Znwj>
    1666:	ec 01       	movw	r28, r24
    1668:	00 e0       	ldi	r16, 0x00	; 0
    166a:	20 e2       	ldi	r18, 0x20	; 32
    166c:	30 e0       	ldi	r19, 0x00	; 0
    166e:	42 e2       	ldi	r20, 0x22	; 34
    1670:	50 e0       	ldi	r21, 0x00	; 0
    1672:	61 e2       	ldi	r22, 0x21	; 33
    1674:	70 e0       	ldi	r23, 0x00	; 0
    1676:	ee de       	rcall	.-548    	; 0x1454 <_ZN6io_pinC1EPVhS1_S1_h9io_config>
    1678:	e0 91 72 03 	lds	r30, 0x0372	; 0x800372 <io0>
    167c:	f0 91 73 03 	lds	r31, 0x0373	; 0x800373 <io0+0x1>
    1680:	d7 87       	std	Z+15, r29	; 0x0f
    1682:	c6 87       	std	Z+14, r28	; 0x0e
    1684:	80 e1       	ldi	r24, 0x10	; 16
    1686:	90 e0       	ldi	r25, 0x00	; 0
    1688:	0f d2       	rcall	.+1054   	; 0x1aa8 <_Znwj>
    168a:	90 93 71 03 	sts	0x0371, r25	; 0x800371 <io1+0x1>
    168e:	80 93 70 03 	sts	0x0370, r24	; 0x800370 <io1>
    1692:	8e e0       	ldi	r24, 0x0E	; 14
    1694:	90 e0       	ldi	r25, 0x00	; 0
    1696:	08 d2       	rcall	.+1040   	; 0x1aa8 <_Znwj>
    1698:	ec 01       	movw	r28, r24
    169a:	26 e2       	ldi	r18, 0x26	; 38
    169c:	30 e0       	ldi	r19, 0x00	; 0
    169e:	48 e2       	ldi	r20, 0x28	; 40
    16a0:	50 e0       	ldi	r21, 0x00	; 0
    16a2:	67 e2       	ldi	r22, 0x27	; 39
    16a4:	70 e0       	ldi	r23, 0x00	; 0
    16a6:	d6 de       	rcall	.-596    	; 0x1454 <_ZN6io_pinC1EPVhS1_S1_h9io_config>
    16a8:	e0 91 72 03 	lds	r30, 0x0372	; 0x800372 <io0>
    16ac:	f0 91 73 03 	lds	r31, 0x0373	; 0x800373 <io0+0x1>
    16b0:	d1 83       	std	Z+1, r29	; 0x01
    16b2:	c0 83       	st	Z, r28
    16b4:	8e e0       	ldi	r24, 0x0E	; 14
    16b6:	90 e0       	ldi	r25, 0x00	; 0
    16b8:	f7 d1       	rcall	.+1006   	; 0x1aa8 <_Znwj>
    16ba:	ec 01       	movw	r28, r24
    16bc:	02 e0       	ldi	r16, 0x02	; 2
    16be:	26 e2       	ldi	r18, 0x26	; 38
    16c0:	30 e0       	ldi	r19, 0x00	; 0
    16c2:	48 e2       	ldi	r20, 0x28	; 40
    16c4:	50 e0       	ldi	r21, 0x00	; 0
    16c6:	67 e2       	ldi	r22, 0x27	; 39
    16c8:	70 e0       	ldi	r23, 0x00	; 0
    16ca:	c4 de       	rcall	.-632    	; 0x1454 <_ZN6io_pinC1EPVhS1_S1_h9io_config>
    16cc:	e0 91 72 03 	lds	r30, 0x0372	; 0x800372 <io0>
    16d0:	f0 91 73 03 	lds	r31, 0x0373	; 0x800373 <io0+0x1>
    16d4:	d3 83       	std	Z+3, r29	; 0x03
    16d6:	c2 83       	std	Z+2, r28	; 0x02
    16d8:	8e e0       	ldi	r24, 0x0E	; 14
    16da:	90 e0       	ldi	r25, 0x00	; 0
    16dc:	e5 d1       	rcall	.+970    	; 0x1aa8 <_Znwj>
    16de:	ec 01       	movw	r28, r24
    16e0:	04 e0       	ldi	r16, 0x04	; 4
    16e2:	26 e2       	ldi	r18, 0x26	; 38
    16e4:	30 e0       	ldi	r19, 0x00	; 0
    16e6:	48 e2       	ldi	r20, 0x28	; 40
    16e8:	50 e0       	ldi	r21, 0x00	; 0
    16ea:	67 e2       	ldi	r22, 0x27	; 39
    16ec:	70 e0       	ldi	r23, 0x00	; 0
    16ee:	b2 de       	rcall	.-668    	; 0x1454 <_ZN6io_pinC1EPVhS1_S1_h9io_config>
    16f0:	e0 91 72 03 	lds	r30, 0x0372	; 0x800372 <io0>
    16f4:	f0 91 73 03 	lds	r31, 0x0373	; 0x800373 <io0+0x1>
    16f8:	d5 83       	std	Z+5, r29	; 0x05
    16fa:	c4 83       	std	Z+4, r28	; 0x04
    16fc:	8e e0       	ldi	r24, 0x0E	; 14
    16fe:	90 e0       	ldi	r25, 0x00	; 0
    1700:	d3 d1       	rcall	.+934    	; 0x1aa8 <_Znwj>
    1702:	ec 01       	movw	r28, r24
    1704:	06 e0       	ldi	r16, 0x06	; 6
    1706:	26 e2       	ldi	r18, 0x26	; 38
    1708:	30 e0       	ldi	r19, 0x00	; 0
    170a:	48 e2       	ldi	r20, 0x28	; 40
    170c:	50 e0       	ldi	r21, 0x00	; 0
    170e:	67 e2       	ldi	r22, 0x27	; 39
    1710:	70 e0       	ldi	r23, 0x00	; 0
    1712:	a0 de       	rcall	.-704    	; 0x1454 <_ZN6io_pinC1EPVhS1_S1_h9io_config>
    1714:	e0 91 72 03 	lds	r30, 0x0372	; 0x800372 <io0>
    1718:	f0 91 73 03 	lds	r31, 0x0373	; 0x800373 <io0+0x1>
    171c:	d7 83       	std	Z+7, r29	; 0x07
    171e:	c6 83       	std	Z+6, r28	; 0x06
    1720:	8e e0       	ldi	r24, 0x0E	; 14
    1722:	90 e0       	ldi	r25, 0x00	; 0
    1724:	c1 d1       	rcall	.+898    	; 0x1aa8 <_Znwj>
    1726:	ec 01       	movw	r28, r24
    1728:	07 e0       	ldi	r16, 0x07	; 7
    172a:	20 e2       	ldi	r18, 0x20	; 32
    172c:	30 e0       	ldi	r19, 0x00	; 0
    172e:	42 e2       	ldi	r20, 0x22	; 34
    1730:	50 e0       	ldi	r21, 0x00	; 0
    1732:	61 e2       	ldi	r22, 0x21	; 33
    1734:	70 e0       	ldi	r23, 0x00	; 0
    1736:	8e de       	rcall	.-740    	; 0x1454 <_ZN6io_pinC1EPVhS1_S1_h9io_config>
    1738:	e0 91 72 03 	lds	r30, 0x0372	; 0x800372 <io0>
    173c:	f0 91 73 03 	lds	r31, 0x0373	; 0x800373 <io0+0x1>
    1740:	d1 87       	std	Z+9, r29	; 0x09
    1742:	c0 87       	std	Z+8, r28	; 0x08
    1744:	8e e0       	ldi	r24, 0x0E	; 14
    1746:	90 e0       	ldi	r25, 0x00	; 0
    1748:	af d1       	rcall	.+862    	; 0x1aa8 <_Znwj>
    174a:	ec 01       	movw	r28, r24
    174c:	05 e0       	ldi	r16, 0x05	; 5
    174e:	20 e2       	ldi	r18, 0x20	; 32
    1750:	30 e0       	ldi	r19, 0x00	; 0
    1752:	42 e2       	ldi	r20, 0x22	; 34
    1754:	50 e0       	ldi	r21, 0x00	; 0
    1756:	61 e2       	ldi	r22, 0x21	; 33
    1758:	70 e0       	ldi	r23, 0x00	; 0
    175a:	7c de       	rcall	.-776    	; 0x1454 <_ZN6io_pinC1EPVhS1_S1_h9io_config>
    175c:	e0 91 72 03 	lds	r30, 0x0372	; 0x800372 <io0>
    1760:	f0 91 73 03 	lds	r31, 0x0373	; 0x800373 <io0+0x1>
    1764:	d3 87       	std	Z+11, r29	; 0x0b
    1766:	c2 87       	std	Z+10, r28	; 0x0a
    1768:	8e e0       	ldi	r24, 0x0E	; 14
    176a:	90 e0       	ldi	r25, 0x00	; 0
    176c:	9d d1       	rcall	.+826    	; 0x1aa8 <_Znwj>
    176e:	ec 01       	movw	r28, r24
    1770:	03 e0       	ldi	r16, 0x03	; 3
    1772:	20 e2       	ldi	r18, 0x20	; 32
    1774:	30 e0       	ldi	r19, 0x00	; 0
    1776:	42 e2       	ldi	r20, 0x22	; 34
    1778:	50 e0       	ldi	r21, 0x00	; 0
    177a:	61 e2       	ldi	r22, 0x21	; 33
    177c:	70 e0       	ldi	r23, 0x00	; 0
    177e:	6a de       	rcall	.-812    	; 0x1454 <_ZN6io_pinC1EPVhS1_S1_h9io_config>
    1780:	e0 91 72 03 	lds	r30, 0x0372	; 0x800372 <io0>
    1784:	f0 91 73 03 	lds	r31, 0x0373	; 0x800373 <io0+0x1>
    1788:	d5 87       	std	Z+13, r29	; 0x0d
    178a:	c4 87       	std	Z+12, r28	; 0x0c
    178c:	8e e0       	ldi	r24, 0x0E	; 14
    178e:	90 e0       	ldi	r25, 0x00	; 0
    1790:	8b d1       	rcall	.+790    	; 0x1aa8 <_Znwj>
    1792:	ec 01       	movw	r28, r24
    1794:	01 e0       	ldi	r16, 0x01	; 1
    1796:	20 e2       	ldi	r18, 0x20	; 32
    1798:	30 e0       	ldi	r19, 0x00	; 0
    179a:	42 e2       	ldi	r20, 0x22	; 34
    179c:	50 e0       	ldi	r21, 0x00	; 0
    179e:	61 e2       	ldi	r22, 0x21	; 33
    17a0:	70 e0       	ldi	r23, 0x00	; 0
    17a2:	58 de       	rcall	.-848    	; 0x1454 <_ZN6io_pinC1EPVhS1_S1_h9io_config>
    17a4:	e0 91 72 03 	lds	r30, 0x0372	; 0x800372 <io0>
    17a8:	f0 91 73 03 	lds	r31, 0x0373	; 0x800373 <io0+0x1>
    17ac:	d7 87       	std	Z+15, r29	; 0x0f
    17ae:	c6 87       	std	Z+14, r28	; 0x0e
    17b0:	80 e1       	ldi	r24, 0x10	; 16
    17b2:	90 e0       	ldi	r25, 0x00	; 0
    17b4:	79 d1       	rcall	.+754    	; 0x1aa8 <_Znwj>
    17b6:	90 93 6f 03 	sts	0x036F, r25	; 0x80036f <io2+0x1>
    17ba:	80 93 6e 03 	sts	0x036E, r24	; 0x80036e <io2>
    17be:	8e e0       	ldi	r24, 0x0E	; 14
    17c0:	90 e0       	ldi	r25, 0x00	; 0
    17c2:	72 d1       	rcall	.+740    	; 0x1aa8 <_Znwj>
    17c4:	ec 01       	movw	r28, r24
    17c6:	07 e0       	ldi	r16, 0x07	; 7
    17c8:	29 e2       	ldi	r18, 0x29	; 41
    17ca:	30 e0       	ldi	r19, 0x00	; 0
    17cc:	4b e2       	ldi	r20, 0x2B	; 43
    17ce:	50 e0       	ldi	r21, 0x00	; 0
    17d0:	6a e2       	ldi	r22, 0x2A	; 42
    17d2:	70 e0       	ldi	r23, 0x00	; 0
    17d4:	3f de       	rcall	.-898    	; 0x1454 <_ZN6io_pinC1EPVhS1_S1_h9io_config>
    17d6:	e0 91 6e 03 	lds	r30, 0x036E	; 0x80036e <io2>
    17da:	f0 91 6f 03 	lds	r31, 0x036F	; 0x80036f <io2+0x1>
    17de:	d1 83       	std	Z+1, r29	; 0x01
    17e0:	c0 83       	st	Z, r28
    17e2:	8e e0       	ldi	r24, 0x0E	; 14
    17e4:	90 e0       	ldi	r25, 0x00	; 0
    17e6:	60 d1       	rcall	.+704    	; 0x1aa8 <_Znwj>
    17e8:	ec 01       	movw	r28, r24
    17ea:	01 e0       	ldi	r16, 0x01	; 1
    17ec:	22 e3       	ldi	r18, 0x32	; 50
    17ee:	30 e0       	ldi	r19, 0x00	; 0
    17f0:	44 e3       	ldi	r20, 0x34	; 52
    17f2:	50 e0       	ldi	r21, 0x00	; 0
    17f4:	63 e3       	ldi	r22, 0x33	; 51
    17f6:	70 e0       	ldi	r23, 0x00	; 0
    17f8:	2d de       	rcall	.-934    	; 0x1454 <_ZN6io_pinC1EPVhS1_S1_h9io_config>
    17fa:	e0 91 6e 03 	lds	r30, 0x036E	; 0x80036e <io2>
    17fe:	f0 91 6f 03 	lds	r31, 0x036F	; 0x80036f <io2+0x1>
    1802:	d3 83       	std	Z+3, r29	; 0x03
    1804:	c2 83       	std	Z+2, r28	; 0x02
    1806:	8e e0       	ldi	r24, 0x0E	; 14
    1808:	90 e0       	ldi	r25, 0x00	; 0
    180a:	4e d1       	rcall	.+668    	; 0x1aa8 <_Znwj>
    180c:	ec 01       	movw	r28, r24
    180e:	07 e0       	ldi	r16, 0x07	; 7
    1810:	29 e0       	ldi	r18, 0x09	; 9
    1812:	31 e0       	ldi	r19, 0x01	; 1
    1814:	4b e0       	ldi	r20, 0x0B	; 11
    1816:	51 e0       	ldi	r21, 0x01	; 1
    1818:	6a e0       	ldi	r22, 0x0A	; 10
    181a:	71 e0       	ldi	r23, 0x01	; 1
    181c:	1b de       	rcall	.-970    	; 0x1454 <_ZN6io_pinC1EPVhS1_S1_h9io_config>
    181e:	e0 91 6e 03 	lds	r30, 0x036E	; 0x80036e <io2>
    1822:	f0 91 6f 03 	lds	r31, 0x036F	; 0x80036f <io2+0x1>
    1826:	d5 83       	std	Z+5, r29	; 0x05
    1828:	c4 83       	std	Z+4, r28	; 0x04
    182a:	8e e0       	ldi	r24, 0x0E	; 14
    182c:	90 e0       	ldi	r25, 0x00	; 0
    182e:	3c d1       	rcall	.+632    	; 0x1aa8 <_Znwj>
    1830:	ec 01       	movw	r28, r24
    1832:	05 e0       	ldi	r16, 0x05	; 5
    1834:	29 e0       	ldi	r18, 0x09	; 9
    1836:	31 e0       	ldi	r19, 0x01	; 1
    1838:	4b e0       	ldi	r20, 0x0B	; 11
    183a:	51 e0       	ldi	r21, 0x01	; 1
    183c:	6a e0       	ldi	r22, 0x0A	; 10
    183e:	71 e0       	ldi	r23, 0x01	; 1
    1840:	09 de       	rcall	.-1006   	; 0x1454 <_ZN6io_pinC1EPVhS1_S1_h9io_config>
    1842:	e0 91 6e 03 	lds	r30, 0x036E	; 0x80036e <io2>
    1846:	f0 91 6f 03 	lds	r31, 0x036F	; 0x80036f <io2+0x1>
    184a:	d7 83       	std	Z+7, r29	; 0x07
    184c:	c6 83       	std	Z+6, r28	; 0x06
    184e:	8e e0       	ldi	r24, 0x0E	; 14
    1850:	90 e0       	ldi	r25, 0x00	; 0
    1852:	2a d1       	rcall	.+596    	; 0x1aa8 <_Znwj>
    1854:	ec 01       	movw	r28, r24
    1856:	03 e0       	ldi	r16, 0x03	; 3
    1858:	29 e0       	ldi	r18, 0x09	; 9
    185a:	31 e0       	ldi	r19, 0x01	; 1
    185c:	4b e0       	ldi	r20, 0x0B	; 11
    185e:	51 e0       	ldi	r21, 0x01	; 1
    1860:	6a e0       	ldi	r22, 0x0A	; 10
    1862:	71 e0       	ldi	r23, 0x01	; 1
    1864:	f7 dd       	rcall	.-1042   	; 0x1454 <_ZN6io_pinC1EPVhS1_S1_h9io_config>
    1866:	e0 91 6e 03 	lds	r30, 0x036E	; 0x80036e <io2>
    186a:	f0 91 6f 03 	lds	r31, 0x036F	; 0x80036f <io2+0x1>
    186e:	d1 87       	std	Z+9, r29	; 0x09
    1870:	c0 87       	std	Z+8, r28	; 0x08
    1872:	8e e0       	ldi	r24, 0x0E	; 14
    1874:	90 e0       	ldi	r25, 0x00	; 0
    1876:	18 d1       	rcall	.+560    	; 0x1aa8 <_Znwj>
    1878:	ec 01       	movw	r28, r24
    187a:	01 e0       	ldi	r16, 0x01	; 1
    187c:	29 e0       	ldi	r18, 0x09	; 9
    187e:	31 e0       	ldi	r19, 0x01	; 1
    1880:	4b e0       	ldi	r20, 0x0B	; 11
    1882:	51 e0       	ldi	r21, 0x01	; 1
    1884:	6a e0       	ldi	r22, 0x0A	; 10
    1886:	71 e0       	ldi	r23, 0x01	; 1
    1888:	e5 dd       	rcall	.-1078   	; 0x1454 <_ZN6io_pinC1EPVhS1_S1_h9io_config>
    188a:	e0 91 6e 03 	lds	r30, 0x036E	; 0x80036e <io2>
    188e:	f0 91 6f 03 	lds	r31, 0x036F	; 0x80036f <io2+0x1>
    1892:	d3 87       	std	Z+11, r29	; 0x0b
    1894:	c2 87       	std	Z+10, r28	; 0x0a
    1896:	8e e0       	ldi	r24, 0x0E	; 14
    1898:	90 e0       	ldi	r25, 0x00	; 0
    189a:	06 d1       	rcall	.+524    	; 0x1aa8 <_Znwj>
    189c:	ec 01       	movw	r28, r24
    189e:	03 e0       	ldi	r16, 0x03	; 3
    18a0:	23 e2       	ldi	r18, 0x23	; 35
    18a2:	30 e0       	ldi	r19, 0x00	; 0
    18a4:	45 e2       	ldi	r20, 0x25	; 37
    18a6:	50 e0       	ldi	r21, 0x00	; 0
    18a8:	64 e2       	ldi	r22, 0x24	; 36
    18aa:	70 e0       	ldi	r23, 0x00	; 0
    18ac:	d3 dd       	rcall	.-1114   	; 0x1454 <_ZN6io_pinC1EPVhS1_S1_h9io_config>
    18ae:	e0 91 6e 03 	lds	r30, 0x036E	; 0x80036e <io2>
    18b2:	f0 91 6f 03 	lds	r31, 0x036F	; 0x80036f <io2+0x1>
    18b6:	d5 87       	std	Z+13, r29	; 0x0d
    18b8:	c4 87       	std	Z+12, r28	; 0x0c
    18ba:	8e e0       	ldi	r24, 0x0E	; 14
    18bc:	90 e0       	ldi	r25, 0x00	; 0
    18be:	f4 d0       	rcall	.+488    	; 0x1aa8 <_Znwj>
    18c0:	ec 01       	movw	r28, r24
    18c2:	01 e0       	ldi	r16, 0x01	; 1
    18c4:	23 e2       	ldi	r18, 0x23	; 35
    18c6:	30 e0       	ldi	r19, 0x00	; 0
    18c8:	45 e2       	ldi	r20, 0x25	; 37
    18ca:	50 e0       	ldi	r21, 0x00	; 0
    18cc:	64 e2       	ldi	r22, 0x24	; 36
    18ce:	70 e0       	ldi	r23, 0x00	; 0
    18d0:	c1 dd       	rcall	.-1150   	; 0x1454 <_ZN6io_pinC1EPVhS1_S1_h9io_config>
    18d2:	e0 91 6e 03 	lds	r30, 0x036E	; 0x80036e <io2>
    18d6:	f0 91 6f 03 	lds	r31, 0x036F	; 0x80036f <io2+0x1>
    18da:	d7 87       	std	Z+15, r29	; 0x0f
    18dc:	c6 87       	std	Z+14, r28	; 0x0e
    18de:	80 e1       	ldi	r24, 0x10	; 16
    18e0:	90 e0       	ldi	r25, 0x00	; 0
    18e2:	e2 d0       	rcall	.+452    	; 0x1aa8 <_Znwj>
    18e4:	90 93 6d 03 	sts	0x036D, r25	; 0x80036d <__data_end+0x1>
    18e8:	80 93 6c 03 	sts	0x036C, r24	; 0x80036c <__data_end>
    18ec:	8e e0       	ldi	r24, 0x0E	; 14
    18ee:	90 e0       	ldi	r25, 0x00	; 0
    18f0:	db d0       	rcall	.+438    	; 0x1aa8 <_Znwj>
    18f2:	ec 01       	movw	r28, r24
    18f4:	02 e0       	ldi	r16, 0x02	; 2
    18f6:	29 e2       	ldi	r18, 0x29	; 41
    18f8:	30 e0       	ldi	r19, 0x00	; 0
    18fa:	44 e3       	ldi	r20, 0x34	; 52
    18fc:	50 e0       	ldi	r21, 0x00	; 0
    18fe:	63 e3       	ldi	r22, 0x33	; 51
    1900:	70 e0       	ldi	r23, 0x00	; 0
    1902:	a8 dd       	rcall	.-1200   	; 0x1454 <_ZN6io_pinC1EPVhS1_S1_h9io_config>
    1904:	e0 91 6c 03 	lds	r30, 0x036C	; 0x80036c <__data_end>
    1908:	f0 91 6d 03 	lds	r31, 0x036D	; 0x80036d <__data_end+0x1>
    190c:	d1 83       	std	Z+1, r29	; 0x01
    190e:	c0 83       	st	Z, r28
    1910:	8e e0       	ldi	r24, 0x0E	; 14
    1912:	90 e0       	ldi	r25, 0x00	; 0
    1914:	c9 d0       	rcall	.+402    	; 0x1aa8 <_Znwj>
    1916:	ec 01       	movw	r28, r24
    1918:	00 e0       	ldi	r16, 0x00	; 0
    191a:	22 e3       	ldi	r18, 0x32	; 50
    191c:	30 e0       	ldi	r19, 0x00	; 0
    191e:	44 e3       	ldi	r20, 0x34	; 52
    1920:	50 e0       	ldi	r21, 0x00	; 0
    1922:	63 e3       	ldi	r22, 0x33	; 51
    1924:	70 e0       	ldi	r23, 0x00	; 0
    1926:	96 dd       	rcall	.-1236   	; 0x1454 <_ZN6io_pinC1EPVhS1_S1_h9io_config>
    1928:	e0 91 6c 03 	lds	r30, 0x036C	; 0x80036c <__data_end>
    192c:	f0 91 6d 03 	lds	r31, 0x036D	; 0x80036d <__data_end+0x1>
    1930:	d3 83       	std	Z+3, r29	; 0x03
    1932:	c2 83       	std	Z+2, r28	; 0x02
    1934:	8e e0       	ldi	r24, 0x0E	; 14
    1936:	90 e0       	ldi	r25, 0x00	; 0
    1938:	b7 d0       	rcall	.+366    	; 0x1aa8 <_Znwj>
    193a:	ec 01       	movw	r28, r24
    193c:	06 e0       	ldi	r16, 0x06	; 6
    193e:	29 e0       	ldi	r18, 0x09	; 9
    1940:	31 e0       	ldi	r19, 0x01	; 1
    1942:	4b e0       	ldi	r20, 0x0B	; 11
    1944:	51 e0       	ldi	r21, 0x01	; 1
    1946:	6a e0       	ldi	r22, 0x0A	; 10
    1948:	71 e0       	ldi	r23, 0x01	; 1
    194a:	84 dd       	rcall	.-1272   	; 0x1454 <_ZN6io_pinC1EPVhS1_S1_h9io_config>
    194c:	e0 91 6c 03 	lds	r30, 0x036C	; 0x80036c <__data_end>
    1950:	f0 91 6d 03 	lds	r31, 0x036D	; 0x80036d <__data_end+0x1>
    1954:	d5 83       	std	Z+5, r29	; 0x05
    1956:	c4 83       	std	Z+4, r28	; 0x04
    1958:	8e e0       	ldi	r24, 0x0E	; 14
    195a:	90 e0       	ldi	r25, 0x00	; 0
    195c:	a5 d0       	rcall	.+330    	; 0x1aa8 <_Znwj>
    195e:	ec 01       	movw	r28, r24
    1960:	04 e0       	ldi	r16, 0x04	; 4
    1962:	29 e0       	ldi	r18, 0x09	; 9
    1964:	31 e0       	ldi	r19, 0x01	; 1
    1966:	4b e0       	ldi	r20, 0x0B	; 11
    1968:	51 e0       	ldi	r21, 0x01	; 1
    196a:	6a e0       	ldi	r22, 0x0A	; 10
    196c:	71 e0       	ldi	r23, 0x01	; 1
    196e:	72 dd       	rcall	.-1308   	; 0x1454 <_ZN6io_pinC1EPVhS1_S1_h9io_config>
    1970:	e0 91 6c 03 	lds	r30, 0x036C	; 0x80036c <__data_end>
    1974:	f0 91 6d 03 	lds	r31, 0x036D	; 0x80036d <__data_end+0x1>
    1978:	d7 83       	std	Z+7, r29	; 0x07
    197a:	c6 83       	std	Z+6, r28	; 0x06
    197c:	8e e0       	ldi	r24, 0x0E	; 14
    197e:	90 e0       	ldi	r25, 0x00	; 0
    1980:	93 d0       	rcall	.+294    	; 0x1aa8 <_Znwj>
    1982:	ec 01       	movw	r28, r24
    1984:	02 e0       	ldi	r16, 0x02	; 2
    1986:	29 e0       	ldi	r18, 0x09	; 9
    1988:	31 e0       	ldi	r19, 0x01	; 1
    198a:	4b e0       	ldi	r20, 0x0B	; 11
    198c:	51 e0       	ldi	r21, 0x01	; 1
    198e:	6a e0       	ldi	r22, 0x0A	; 10
    1990:	71 e0       	ldi	r23, 0x01	; 1
    1992:	60 dd       	rcall	.-1344   	; 0x1454 <_ZN6io_pinC1EPVhS1_S1_h9io_config>
    1994:	e0 91 6c 03 	lds	r30, 0x036C	; 0x80036c <__data_end>
    1998:	f0 91 6d 03 	lds	r31, 0x036D	; 0x80036d <__data_end+0x1>
    199c:	d1 87       	std	Z+9, r29	; 0x09
    199e:	c0 87       	std	Z+8, r28	; 0x08
    19a0:	8e e0       	ldi	r24, 0x0E	; 14
    19a2:	90 e0       	ldi	r25, 0x00	; 0
    19a4:	81 d0       	rcall	.+258    	; 0x1aa8 <_Znwj>
    19a6:	ec 01       	movw	r28, r24
    19a8:	00 e0       	ldi	r16, 0x00	; 0
    19aa:	29 e0       	ldi	r18, 0x09	; 9
    19ac:	31 e0       	ldi	r19, 0x01	; 1
    19ae:	4b e0       	ldi	r20, 0x0B	; 11
    19b0:	51 e0       	ldi	r21, 0x01	; 1
    19b2:	6a e0       	ldi	r22, 0x0A	; 10
    19b4:	71 e0       	ldi	r23, 0x01	; 1
    19b6:	4e dd       	rcall	.-1380   	; 0x1454 <_ZN6io_pinC1EPVhS1_S1_h9io_config>
    19b8:	e0 91 6c 03 	lds	r30, 0x036C	; 0x80036c <__data_end>
    19bc:	f0 91 6d 03 	lds	r31, 0x036D	; 0x80036d <__data_end+0x1>
    19c0:	d3 87       	std	Z+11, r29	; 0x0b
    19c2:	c2 87       	std	Z+10, r28	; 0x0a
    19c4:	8e e0       	ldi	r24, 0x0E	; 14
    19c6:	90 e0       	ldi	r25, 0x00	; 0
    19c8:	6f d0       	rcall	.+222    	; 0x1aa8 <_Znwj>
    19ca:	ec 01       	movw	r28, r24
    19cc:	02 e0       	ldi	r16, 0x02	; 2
    19ce:	23 e2       	ldi	r18, 0x23	; 35
    19d0:	30 e0       	ldi	r19, 0x00	; 0
    19d2:	45 e2       	ldi	r20, 0x25	; 37
    19d4:	50 e0       	ldi	r21, 0x00	; 0
    19d6:	64 e2       	ldi	r22, 0x24	; 36
    19d8:	70 e0       	ldi	r23, 0x00	; 0
    19da:	3c dd       	rcall	.-1416   	; 0x1454 <_ZN6io_pinC1EPVhS1_S1_h9io_config>
    19dc:	e0 91 6c 03 	lds	r30, 0x036C	; 0x80036c <__data_end>
    19e0:	f0 91 6d 03 	lds	r31, 0x036D	; 0x80036d <__data_end+0x1>
    19e4:	d5 87       	std	Z+13, r29	; 0x0d
    19e6:	c4 87       	std	Z+12, r28	; 0x0c
    19e8:	8e e0       	ldi	r24, 0x0E	; 14
    19ea:	90 e0       	ldi	r25, 0x00	; 0
    19ec:	5d d0       	rcall	.+186    	; 0x1aa8 <_Znwj>
    19ee:	ec 01       	movw	r28, r24
    19f0:	00 e0       	ldi	r16, 0x00	; 0
    19f2:	23 e2       	ldi	r18, 0x23	; 35
    19f4:	30 e0       	ldi	r19, 0x00	; 0
    19f6:	45 e2       	ldi	r20, 0x25	; 37
    19f8:	50 e0       	ldi	r21, 0x00	; 0
    19fa:	64 e2       	ldi	r22, 0x24	; 36
    19fc:	70 e0       	ldi	r23, 0x00	; 0
    19fe:	2a dd       	rcall	.-1452   	; 0x1454 <_ZN6io_pinC1EPVhS1_S1_h9io_config>
    1a00:	e0 91 6c 03 	lds	r30, 0x036C	; 0x80036c <__data_end>
    1a04:	f0 91 6d 03 	lds	r31, 0x036D	; 0x80036d <__data_end+0x1>
    1a08:	d7 87       	std	Z+15, r29	; 0x0f
    1a0a:	c6 87       	std	Z+14, r28	; 0x0e
    1a0c:	df 91       	pop	r29
    1a0e:	cf 91       	pop	r28
    1a10:	0f 91       	pop	r16
    1a12:	ef 90       	pop	r14
    1a14:	08 95       	ret

00001a16 <main>:
    1a16:	99 dd       	rcall	.-1230   	; 0x154a <_Z7init_iov>
    1a18:	eb d0       	rcall	.+470    	; 0x1bf0 <_Z10init_UART0v>
    1a1a:	78 94       	sei
    1a1c:	84 e7       	ldi	r24, 0x74	; 116
    1a1e:	93 e0       	ldi	r25, 0x03	; 3
    1a20:	06 dc       	rcall	.-2036   	; 0x122e <_ZN9cmdParser11checkparserEv>
    1a22:	fc cf       	rjmp	.-8      	; 0x1a1c <main+0x6>

00001a24 <__vector_29>:
	
}
ISR (ADC_vect){
    1a24:	1f 92       	push	r1
    1a26:	0f 92       	push	r0
    1a28:	0f b6       	in	r0, 0x3f	; 63
    1a2a:	0f 92       	push	r0
    1a2c:	11 24       	eor	r1, r1
    1a2e:	0b b6       	in	r0, 0x3b	; 59
    1a30:	0f 92       	push	r0
    1a32:	2f 93       	push	r18
    1a34:	3f 93       	push	r19
    1a36:	4f 93       	push	r20
    1a38:	5f 93       	push	r21
    1a3a:	6f 93       	push	r22
    1a3c:	7f 93       	push	r23
    1a3e:	8f 93       	push	r24
    1a40:	9f 93       	push	r25
    1a42:	af 93       	push	r26
    1a44:	bf 93       	push	r27
    1a46:	ef 93       	push	r30
    1a48:	ff 93       	push	r31
	myADC.sample();
    1a4a:	85 e7       	ldi	r24, 0x75	; 117
    1a4c:	93 e0       	ldi	r25, 0x03	; 3
    1a4e:	0e 94 21 01 	call	0x242	; 0x242 <_ZN22AnalogDigitalConverter6sampleEv>
    1a52:	ff 91       	pop	r31
    1a54:	ef 91       	pop	r30
    1a56:	bf 91       	pop	r27
    1a58:	af 91       	pop	r26
    1a5a:	9f 91       	pop	r25
    1a5c:	8f 91       	pop	r24
    1a5e:	7f 91       	pop	r23
    1a60:	6f 91       	pop	r22
    1a62:	5f 91       	pop	r21
    1a64:	4f 91       	pop	r20
    1a66:	3f 91       	pop	r19
    1a68:	2f 91       	pop	r18
    1a6a:	0f 90       	pop	r0
    1a6c:	0b be       	out	0x3b, r0	; 59
    1a6e:	0f 90       	pop	r0
    1a70:	0f be       	out	0x3f, r0	; 63
    1a72:	0f 90       	pop	r0
    1a74:	1f 90       	pop	r1
    1a76:	18 95       	reti

00001a78 <_GLOBAL__sub_I_myADC>:
#include "ADC.h"
#include "cmdParser.h"
#include "io.h"
#include "cmdHandler.h"
#include <util/delay.h>
AnalogDigitalConverter myADC;
    1a78:	85 e7       	ldi	r24, 0x75	; 117
    1a7a:	93 e0       	ldi	r25, 0x03	; 3
    1a7c:	0c 94 ce 00 	jmp	0x19c	; 0x19c <_ZN22AnalogDigitalConverterC1Ev>
    1a80:	08 95       	ret

00001a82 <_GLOBAL__sub_D_myADC>:
void init_ADC(){
	
}
ISR (ADC_vect){
	myADC.sample();
    1a82:	0f 93       	push	r16
    1a84:	1f 93       	push	r17
    1a86:	cf 93       	push	r28
    1a88:	df 93       	push	r29
    1a8a:	c9 e2       	ldi	r28, 0x29	; 41
    1a8c:	d4 e0       	ldi	r29, 0x04	; 4
    1a8e:	09 e6       	ldi	r16, 0x69	; 105
    1a90:	13 e0       	ldi	r17, 0x03	; 3

	



class AnalogDigitalConverter{
    1a92:	ce 01       	movw	r24, r28
    1a94:	a1 d0       	rcall	.+322    	; 0x1bd8 <_ZN10iirlowpassD1Ev>
    1a96:	2c 97       	sbiw	r28, 0x0c	; 12
    1a98:	c0 17       	cp	r28, r16
    1a9a:	d1 07       	cpc	r29, r17
    1a9c:	d1 f7       	brne	.-12     	; 0x1a92 <_GLOBAL__sub_D_myADC+0x10>
    1a9e:	df 91       	pop	r29
    1aa0:	cf 91       	pop	r28
    1aa2:	1f 91       	pop	r17
    1aa4:	0f 91       	pop	r16
    1aa6:	08 95       	ret

00001aa8 <_Znwj>:
void __cxa_guard_release (__guard *g) {*(char *)g = 1;};
void __cxa_guard_abort (__guard *) {};

void * operator new(size_t size)
{
  return malloc(size);
    1aa8:	c8 c1       	rjmp	.+912    	; 0x1e3a <malloc>
}
    1aaa:	08 95       	ret

00001aac <_ZdlPv>:

void operator delete(void * ptr)
{
  free(ptr);
    1aac:	5b c2       	rjmp	.+1206   	; 0x1f64 <free>
    1aae:	08 95       	ret

00001ab0 <_ZN10iirlowpass6sampleEi>:
 * Created: 22.10.2017 18:28:58
 *  Author: Flo
 */ 
 #include "tiefpass.h"
 #include <stdlib.h>
int16_t iirlowpass::sample(int16_t NewSample){
    1ab0:	cf 92       	push	r12
    1ab2:	df 92       	push	r13
    1ab4:	ef 92       	push	r14
    1ab6:	ff 92       	push	r15
    1ab8:	cf 93       	push	r28
    1aba:	df 93       	push	r29
    1abc:	ec 01       	movw	r28, r24
	//shift the old samples
	for(uint8_t n=NCoef; n>0; n--) {
		x[n] = x[n-1];
    1abe:	e8 85       	ldd	r30, Y+8	; 0x08
    1ac0:	f9 85       	ldd	r31, Y+9	; 0x09
    1ac2:	80 81       	ld	r24, Z
    1ac4:	91 81       	ldd	r25, Z+1	; 0x01
    1ac6:	93 83       	std	Z+3, r25	; 0x03
    1ac8:	82 83       	std	Z+2, r24	; 0x02
		y[n] = y[n-1];
    1aca:	ea 85       	ldd	r30, Y+10	; 0x0a
    1acc:	fb 85       	ldd	r31, Y+11	; 0x0b
    1ace:	80 81       	ld	r24, Z
    1ad0:	91 81       	ldd	r25, Z+1	; 0x01
    1ad2:	a2 81       	ldd	r26, Z+2	; 0x02
    1ad4:	b3 81       	ldd	r27, Z+3	; 0x03
    1ad6:	84 83       	std	Z+4, r24	; 0x04
    1ad8:	95 83       	std	Z+5, r25	; 0x05
    1ada:	a6 83       	std	Z+6, r26	; 0x06
    1adc:	b7 83       	std	Z+7, r27	; 0x07
	}

	//Calculate the new output
	x[0] = NewSample;
    1ade:	e8 85       	ldd	r30, Y+8	; 0x08
    1ae0:	f9 85       	ldd	r31, Y+9	; 0x09
    1ae2:	71 83       	std	Z+1, r23	; 0x01
    1ae4:	60 83       	st	Z, r22
	y[0] = (int32_t)ACoef[0] * (int32_t)x[0];
    1ae6:	ea 85       	ldd	r30, Y+10	; 0x0a
    1ae8:	fb 85       	ldd	r31, Y+11	; 0x0b
    1aea:	28 81       	ld	r18, Y
    1aec:	39 81       	ldd	r19, Y+1	; 0x01
    1aee:	a8 85       	ldd	r26, Y+8	; 0x08
    1af0:	b9 85       	ldd	r27, Y+9	; 0x09
    1af2:	0d 90       	ld	r0, X+
    1af4:	bc 91       	ld	r27, X
    1af6:	a0 2d       	mov	r26, r0
    1af8:	3f d1       	rcall	.+638    	; 0x1d78 <__mulhisi3>
    1afa:	60 83       	st	Z, r22
    1afc:	71 83       	std	Z+1, r23	; 0x01
    1afe:	82 83       	std	Z+2, r24	; 0x02
    1b00:	93 83       	std	Z+3, r25	; 0x03
	for(uint8_t n=1; n<=NCoef; n++){
		y[0] += (int32_t)ACoef[n] * (int32_t)x[n] - (int32_t)BCoef[n] * y[n];
    1b02:	ea 85       	ldd	r30, Y+10	; 0x0a
    1b04:	fb 85       	ldd	r31, Y+11	; 0x0b
    1b06:	2a 81       	ldd	r18, Y+2	; 0x02
    1b08:	3b 81       	ldd	r19, Y+3	; 0x03
    1b0a:	a8 85       	ldd	r26, Y+8	; 0x08
    1b0c:	b9 85       	ldd	r27, Y+9	; 0x09
    1b0e:	12 96       	adiw	r26, 0x02	; 2
    1b10:	0d 90       	ld	r0, X+
    1b12:	bc 91       	ld	r27, X
    1b14:	a0 2d       	mov	r26, r0
    1b16:	30 d1       	rcall	.+608    	; 0x1d78 <__mulhisi3>
    1b18:	6b 01       	movw	r12, r22
    1b1a:	7c 01       	movw	r14, r24
    1b1c:	ae 81       	ldd	r26, Y+6	; 0x06
    1b1e:	bf 81       	ldd	r27, Y+7	; 0x07
    1b20:	24 81       	ldd	r18, Z+4	; 0x04
    1b22:	35 81       	ldd	r19, Z+5	; 0x05
    1b24:	46 81       	ldd	r20, Z+6	; 0x06
    1b26:	57 81       	ldd	r21, Z+7	; 0x07
    1b28:	42 d1       	rcall	.+644    	; 0x1dae <__mulshisi3>
    1b2a:	c6 1a       	sub	r12, r22
    1b2c:	d7 0a       	sbc	r13, r23
    1b2e:	e8 0a       	sbc	r14, r24
    1b30:	f9 0a       	sbc	r15, r25
    1b32:	80 81       	ld	r24, Z
    1b34:	91 81       	ldd	r25, Z+1	; 0x01
    1b36:	a2 81       	ldd	r26, Z+2	; 0x02
    1b38:	b3 81       	ldd	r27, Z+3	; 0x03
    1b3a:	c8 0e       	add	r12, r24
    1b3c:	d9 1e       	adc	r13, r25
    1b3e:	ea 1e       	adc	r14, r26
    1b40:	fb 1e       	adc	r15, r27
    1b42:	c0 82       	st	Z, r12
    1b44:	d1 82       	std	Z+1, r13	; 0x01
    1b46:	e2 82       	std	Z+2, r14	; 0x02
    1b48:	f3 82       	std	Z+3, r15	; 0x03
	}
	
	y[0] /= (int32_t)BCoef[0];
    1b4a:	ea 84       	ldd	r14, Y+10	; 0x0a
    1b4c:	fb 84       	ldd	r15, Y+11	; 0x0b
    1b4e:	2c 81       	ldd	r18, Y+4	; 0x04
    1b50:	3d 81       	ldd	r19, Y+5	; 0x05
    1b52:	03 2e       	mov	r0, r19
    1b54:	00 0c       	add	r0, r0
    1b56:	44 0b       	sbc	r20, r20
    1b58:	55 0b       	sbc	r21, r21
    1b5a:	f7 01       	movw	r30, r14
    1b5c:	60 81       	ld	r22, Z
    1b5e:	71 81       	ldd	r23, Z+1	; 0x01
    1b60:	82 81       	ldd	r24, Z+2	; 0x02
    1b62:	93 81       	ldd	r25, Z+3	; 0x03
    1b64:	e5 d0       	rcall	.+458    	; 0x1d30 <__divmodsi4>
    1b66:	f7 01       	movw	r30, r14
    1b68:	20 83       	st	Z, r18
    1b6a:	31 83       	std	Z+1, r19	; 0x01
    1b6c:	42 83       	std	Z+2, r20	; 0x02
    1b6e:	53 83       	std	Z+3, r21	; 0x03
	
	return (int16_t)(y[0]>>14);		//return (int16_t)(y[0] / DCgain);
    1b70:	ea 85       	ldd	r30, Y+10	; 0x0a
    1b72:	fb 85       	ldd	r31, Y+11	; 0x0b
    1b74:	80 81       	ld	r24, Z
    1b76:	91 81       	ldd	r25, Z+1	; 0x01
    1b78:	a2 81       	ldd	r26, Z+2	; 0x02
    1b7a:	b3 81       	ldd	r27, Z+3	; 0x03
    1b7c:	07 2e       	mov	r0, r23
    1b7e:	7e e0       	ldi	r23, 0x0E	; 14
    1b80:	b5 95       	asr	r27
    1b82:	a7 95       	ror	r26
    1b84:	97 95       	ror	r25
    1b86:	87 95       	ror	r24
    1b88:	7a 95       	dec	r23
    1b8a:	d1 f7       	brne	.-12     	; 0x1b80 <_ZN10iirlowpass6sampleEi+0xd0>
    1b8c:	70 2d       	mov	r23, r0
}
    1b8e:	df 91       	pop	r29
    1b90:	cf 91       	pop	r28
    1b92:	ff 90       	pop	r15
    1b94:	ef 90       	pop	r14
    1b96:	df 90       	pop	r13
    1b98:	cf 90       	pop	r12
    1b9a:	08 95       	ret

00001b9c <_ZN10iirlowpassC1Ev>:
iirlowpass::iirlowpass(){
    1b9c:	cf 93       	push	r28
    1b9e:	df 93       	push	r29
    1ba0:	ec 01       	movw	r28, r24
    1ba2:	89 ec       	ldi	r24, 0xC9	; 201
    1ba4:	92 e5       	ldi	r25, 0x52	; 82
    1ba6:	99 83       	std	Y+1, r25	; 0x01
    1ba8:	88 83       	st	Y, r24
    1baa:	9b 83       	std	Y+3, r25	; 0x03
    1bac:	8a 83       	std	Y+2, r24	; 0x02
    1bae:	8f ef       	ldi	r24, 0xFF	; 255
    1bb0:	9f e7       	ldi	r25, 0x7F	; 127
    1bb2:	9d 83       	std	Y+5, r25	; 0x05
    1bb4:	8c 83       	std	Y+4, r24	; 0x04
    1bb6:	8d e4       	ldi	r24, 0x4D	; 77
    1bb8:	9a e8       	ldi	r25, 0x8A	; 138
    1bba:	9f 83       	std	Y+7, r25	; 0x07
    1bbc:	8e 83       	std	Y+6, r24	; 0x06

	x=(int16_t*)malloc(2*(NCoef+1));
    1bbe:	84 e0       	ldi	r24, 0x04	; 4
    1bc0:	90 e0       	ldi	r25, 0x00	; 0
    1bc2:	3b d1       	rcall	.+630    	; 0x1e3a <malloc>
    1bc4:	99 87       	std	Y+9, r25	; 0x09
    1bc6:	88 87       	std	Y+8, r24	; 0x08
	y=(int32_t*)malloc(4*(NCoef+1));
    1bc8:	88 e0       	ldi	r24, 0x08	; 8
    1bca:	90 e0       	ldi	r25, 0x00	; 0
    1bcc:	36 d1       	rcall	.+620    	; 0x1e3a <malloc>
    1bce:	9b 87       	std	Y+11, r25	; 0x0b
    1bd0:	8a 87       	std	Y+10, r24	; 0x0a
};
    1bd2:	df 91       	pop	r29
    1bd4:	cf 91       	pop	r28
    1bd6:	08 95       	ret

00001bd8 <_ZN10iirlowpassD1Ev>:
iirlowpass::~iirlowpass(){
    1bd8:	cf 93       	push	r28
    1bda:	df 93       	push	r29
    1bdc:	ec 01       	movw	r28, r24
	free(x);
    1bde:	88 85       	ldd	r24, Y+8	; 0x08
    1be0:	99 85       	ldd	r25, Y+9	; 0x09
    1be2:	c0 d1       	rcall	.+896    	; 0x1f64 <free>
	free(y);
    1be4:	8a 85       	ldd	r24, Y+10	; 0x0a
    1be6:	9b 85       	ldd	r25, Y+11	; 0x0b
    1be8:	bd d1       	rcall	.+890    	; 0x1f64 <free>
    1bea:	df 91       	pop	r29
    1bec:	cf 91       	pop	r28
    1bee:	08 95       	ret

00001bf0 <_Z10init_UART0v>:
	 
	 uint16_t baud = F_CPU / (BAUD * 16L) -1;
	 UBRR1H = (uint8_t) (baud >> 8);
	 UBRR1L = (uint8_t) baud;
	 UCSR1B = UCSR1B_std;
	 UCSR1C = UCSR1C_std;
    1bf0:	10 92 c5 00 	sts	0x00C5, r1	; 0x8000c5 <__TEXT_REGION_LENGTH__+0x7000c5>
    1bf4:	80 e1       	ldi	r24, 0x10	; 16
    1bf6:	80 93 c4 00 	sts	0x00C4, r24	; 0x8000c4 <__TEXT_REGION_LENGTH__+0x7000c4>
    1bfa:	88 e9       	ldi	r24, 0x98	; 152
    1bfc:	80 93 c1 00 	sts	0x00C1, r24	; 0x8000c1 <__TEXT_REGION_LENGTH__+0x7000c1>
    1c00:	86 e0       	ldi	r24, 0x06	; 6
    1c02:	80 93 c2 00 	sts	0x00C2, r24	; 0x8000c2 <__TEXT_REGION_LENGTH__+0x7000c2>
    1c06:	08 95       	ret

00001c08 <__vector_36>:
	if(InBufferUart0[InBufferUart0pointer-1]==eot){
		myParser.set_parser_flag();
	}
	serial_out0(InBufferUart0[InBufferUart0pointer-1]);
}
ISR(USART1_RX_vect){
    1c08:	1f 92       	push	r1
    1c0a:	0f 92       	push	r0
    1c0c:	0f b6       	in	r0, 0x3f	; 63
    1c0e:	0f 92       	push	r0
    1c10:	11 24       	eor	r1, r1
    1c12:	8f 93       	push	r24
	 uint8_t temp= UDR1;
    1c14:	80 91 ce 00 	lds	r24, 0x00CE	; 0x8000ce <__TEXT_REGION_LENGTH__+0x7000ce>
}
    1c18:	8f 91       	pop	r24
    1c1a:	0f 90       	pop	r0
    1c1c:	0f be       	out	0x3f, r0	; 63
    1c1e:	0f 90       	pop	r0
    1c20:	1f 90       	pop	r1
    1c22:	18 95       	reti

00001c24 <_Z11serial_out0h>:
uint8_t serial_out0(uint8_t data){
	 while (!(UCSR0A & (1<<UDRE0)))  // warten bis Senden moeglich
    1c24:	90 91 c0 00 	lds	r25, 0x00C0	; 0x8000c0 <__TEXT_REGION_LENGTH__+0x7000c0>
    1c28:	95 fd       	sbrc	r25, 5
    1c2a:	06 c0       	rjmp	.+12     	; 0x1c38 <_Z11serial_out0h+0x14>
    1c2c:	e0 ec       	ldi	r30, 0xC0	; 192
    1c2e:	f0 e0       	ldi	r31, 0x00	; 0
	 {
		 asm("nop");
    1c30:	00 00       	nop
}
ISR(USART1_RX_vect){
	 uint8_t temp= UDR1;
}
uint8_t serial_out0(uint8_t data){
	 while (!(UCSR0A & (1<<UDRE0)))  // warten bis Senden moeglich
    1c32:	90 81       	ld	r25, Z
    1c34:	95 ff       	sbrs	r25, 5
    1c36:	fc cf       	rjmp	.-8      	; 0x1c30 <_Z11serial_out0h+0xc>
	 {
		 asm("nop");
	 }
	 
	 UDR0 = data;                    //sende Zeichen
    1c38:	80 93 c6 00 	sts	0x00C6, r24	; 0x8000c6 <__TEXT_REGION_LENGTH__+0x7000c6>
	 
	 return 0;
}
    1c3c:	80 e0       	ldi	r24, 0x00	; 0
    1c3e:	08 95       	ret

00001c40 <__vector_25>:
	 UBRR1H = (uint8_t) (baud >> 8);
	 UBRR1L = (uint8_t) baud;
	 UCSR1B = UCSR1B_std;
	 UCSR1C = UCSR1C_std;
}
ISR(USART0_RX_vect){
    1c40:	1f 92       	push	r1
    1c42:	0f 92       	push	r0
    1c44:	0f b6       	in	r0, 0x3f	; 63
    1c46:	0f 92       	push	r0
    1c48:	11 24       	eor	r1, r1
    1c4a:	0b b6       	in	r0, 0x3b	; 59
    1c4c:	0f 92       	push	r0
    1c4e:	2f 93       	push	r18
    1c50:	3f 93       	push	r19
    1c52:	4f 93       	push	r20
    1c54:	5f 93       	push	r21
    1c56:	6f 93       	push	r22
    1c58:	7f 93       	push	r23
    1c5a:	8f 93       	push	r24
    1c5c:	9f 93       	push	r25
    1c5e:	af 93       	push	r26
    1c60:	bf 93       	push	r27
    1c62:	ef 93       	push	r30
    1c64:	ff 93       	push	r31
	InBufferUart0[InBufferUart0pointer] = UDR0;
    1c66:	e0 91 be 05 	lds	r30, 0x05BE	; 0x8005be <InBufferUart0pointer>
    1c6a:	80 91 c6 00 	lds	r24, 0x00C6	; 0x8000c6 <__TEXT_REGION_LENGTH__+0x7000c6>
    1c6e:	ae 2f       	mov	r26, r30
    1c70:	b0 e0       	ldi	r27, 0x00	; 0
    1c72:	a1 54       	subi	r26, 0x41	; 65
    1c74:	ba 4f       	sbci	r27, 0xFA	; 250
    1c76:	8c 93       	st	X, r24
	InBufferUart0pointer++;
    1c78:	ef 5f       	subi	r30, 0xFF	; 255
    1c7a:	e0 93 be 05 	sts	0x05BE, r30	; 0x8005be <InBufferUart0pointer>

	if(InBufferUart0[InBufferUart0pointer-1]==eot){
    1c7e:	f0 e0       	ldi	r31, 0x00	; 0
    1c80:	e2 54       	subi	r30, 0x42	; 66
    1c82:	fa 4f       	sbci	r31, 0xFA	; 250
    1c84:	80 81       	ld	r24, Z
    1c86:	8d 30       	cpi	r24, 0x0D	; 13
    1c88:	21 f4       	brne	.+8      	; 0x1c92 <__vector_25+0x52>
		myParser.set_parser_flag();
    1c8a:	84 e7       	ldi	r24, 0x74	; 116
    1c8c:	93 e0       	ldi	r25, 0x03	; 3
    1c8e:	0e 94 14 05 	call	0xa28	; 0xa28 <_ZN9cmdParser15set_parser_flagEv>
	}
	serial_out0(InBufferUart0[InBufferUart0pointer-1]);
    1c92:	e0 91 be 05 	lds	r30, 0x05BE	; 0x8005be <InBufferUart0pointer>
    1c96:	f0 e0       	ldi	r31, 0x00	; 0
    1c98:	e2 54       	subi	r30, 0x42	; 66
    1c9a:	fa 4f       	sbci	r31, 0xFA	; 250
    1c9c:	80 81       	ld	r24, Z
    1c9e:	c2 df       	rcall	.-124    	; 0x1c24 <_Z11serial_out0h>
}
    1ca0:	ff 91       	pop	r31
    1ca2:	ef 91       	pop	r30
    1ca4:	bf 91       	pop	r27
    1ca6:	af 91       	pop	r26
    1ca8:	9f 91       	pop	r25
    1caa:	8f 91       	pop	r24
    1cac:	7f 91       	pop	r23
    1cae:	6f 91       	pop	r22
    1cb0:	5f 91       	pop	r21
    1cb2:	4f 91       	pop	r20
    1cb4:	3f 91       	pop	r19
    1cb6:	2f 91       	pop	r18
    1cb8:	0f 90       	pop	r0
    1cba:	0b be       	out	0x3b, r0	; 59
    1cbc:	0f 90       	pop	r0
    1cbe:	0f be       	out	0x3f, r0	; 63
    1cc0:	0f 90       	pop	r0
    1cc2:	1f 90       	pop	r1
    1cc4:	18 95       	reti

00001cc6 <_Z11serial_out0Phh>:
	 
	 UDR0 = data;                    //sende Zeichen
	 
	 return 0;
}
uint8_t serial_out0(uint8_t* data, uint8_t count){
    1cc6:	cf 93       	push	r28
    1cc8:	df 93       	push	r29
for(uint8_t i=0; i<count;i++){
    1cca:	66 23       	and	r22, r22
    1ccc:	d1 f0       	breq	.+52     	; 0x1d02 <_Z11serial_out0Phh+0x3c>
    1cce:	dc 01       	movw	r26, r24
    1cd0:	61 50       	subi	r22, 0x01	; 1
    1cd2:	26 2f       	mov	r18, r22
    1cd4:	30 e0       	ldi	r19, 0x00	; 0
    1cd6:	2f 5f       	subi	r18, 0xFF	; 255
    1cd8:	3f 4f       	sbci	r19, 0xFF	; 255
    1cda:	28 0f       	add	r18, r24
    1cdc:	39 1f       	adc	r19, r25
	while (!(UCSR0A & (1<<UDRE0)))  // warten bis Senden moeglich
    1cde:	e0 ec       	ldi	r30, 0xC0	; 192
    1ce0:	f0 e0       	ldi	r31, 0x00	; 0
		{
			asm("nop");
		}
		UDR0 = data[i];                    //sende Zeichen
    1ce2:	c6 ec       	ldi	r28, 0xC6	; 198
    1ce4:	d0 e0       	ldi	r29, 0x00	; 0
    1ce6:	09 c0       	rjmp	.+18     	; 0x1cfa <_Z11serial_out0Phh+0x34>
}
uint8_t serial_out0(uint8_t* data, uint8_t count){
for(uint8_t i=0; i<count;i++){
	while (!(UCSR0A & (1<<UDRE0)))  // warten bis Senden moeglich
		{
			asm("nop");
    1ce8:	00 00       	nop
	 
	 return 0;
}
uint8_t serial_out0(uint8_t* data, uint8_t count){
for(uint8_t i=0; i<count;i++){
	while (!(UCSR0A & (1<<UDRE0)))  // warten bis Senden moeglich
    1cea:	90 81       	ld	r25, Z
    1cec:	95 ff       	sbrs	r25, 5
    1cee:	fc cf       	rjmp	.-8      	; 0x1ce8 <_Z11serial_out0Phh+0x22>
		{
			asm("nop");
		}
		UDR0 = data[i];                    //sende Zeichen
    1cf0:	9d 91       	ld	r25, X+
    1cf2:	98 83       	st	Y, r25
	 UDR0 = data;                    //sende Zeichen
	 
	 return 0;
}
uint8_t serial_out0(uint8_t* data, uint8_t count){
for(uint8_t i=0; i<count;i++){
    1cf4:	a2 17       	cp	r26, r18
    1cf6:	b3 07       	cpc	r27, r19
    1cf8:	21 f0       	breq	.+8      	; 0x1d02 <_Z11serial_out0Phh+0x3c>
	while (!(UCSR0A & (1<<UDRE0)))  // warten bis Senden moeglich
    1cfa:	90 81       	ld	r25, Z
    1cfc:	95 ff       	sbrs	r25, 5
    1cfe:	f4 cf       	rjmp	.-24     	; 0x1ce8 <_Z11serial_out0Phh+0x22>
    1d00:	f7 cf       	rjmp	.-18     	; 0x1cf0 <_Z11serial_out0Phh+0x2a>
			asm("nop");
		}
		UDR0 = data[i];                    //sende Zeichen
}	
	return 0;
}
    1d02:	80 e0       	ldi	r24, 0x00	; 0
    1d04:	df 91       	pop	r29
    1d06:	cf 91       	pop	r28
    1d08:	08 95       	ret

00001d0a <__divmodhi4>:
    1d0a:	97 fb       	bst	r25, 7
    1d0c:	07 2e       	mov	r0, r23
    1d0e:	16 f4       	brtc	.+4      	; 0x1d14 <__divmodhi4+0xa>
    1d10:	00 94       	com	r0
    1d12:	06 d0       	rcall	.+12     	; 0x1d20 <__divmodhi4_neg1>
    1d14:	77 fd       	sbrc	r23, 7
    1d16:	08 d0       	rcall	.+16     	; 0x1d28 <__divmodhi4_neg2>
    1d18:	50 d0       	rcall	.+160    	; 0x1dba <__udivmodhi4>
    1d1a:	07 fc       	sbrc	r0, 7
    1d1c:	05 d0       	rcall	.+10     	; 0x1d28 <__divmodhi4_neg2>
    1d1e:	3e f4       	brtc	.+14     	; 0x1d2e <__divmodhi4_exit>

00001d20 <__divmodhi4_neg1>:
    1d20:	90 95       	com	r25
    1d22:	81 95       	neg	r24
    1d24:	9f 4f       	sbci	r25, 0xFF	; 255
    1d26:	08 95       	ret

00001d28 <__divmodhi4_neg2>:
    1d28:	70 95       	com	r23
    1d2a:	61 95       	neg	r22
    1d2c:	7f 4f       	sbci	r23, 0xFF	; 255

00001d2e <__divmodhi4_exit>:
    1d2e:	08 95       	ret

00001d30 <__divmodsi4>:
    1d30:	05 2e       	mov	r0, r21
    1d32:	97 fb       	bst	r25, 7
    1d34:	16 f4       	brtc	.+4      	; 0x1d3a <__divmodsi4+0xa>
    1d36:	00 94       	com	r0
    1d38:	0f d0       	rcall	.+30     	; 0x1d58 <__negsi2>
    1d3a:	57 fd       	sbrc	r21, 7
    1d3c:	05 d0       	rcall	.+10     	; 0x1d48 <__divmodsi4_neg2>
    1d3e:	51 d0       	rcall	.+162    	; 0x1de2 <__udivmodsi4>
    1d40:	07 fc       	sbrc	r0, 7
    1d42:	02 d0       	rcall	.+4      	; 0x1d48 <__divmodsi4_neg2>
    1d44:	46 f4       	brtc	.+16     	; 0x1d56 <__divmodsi4_exit>
    1d46:	08 c0       	rjmp	.+16     	; 0x1d58 <__negsi2>

00001d48 <__divmodsi4_neg2>:
    1d48:	50 95       	com	r21
    1d4a:	40 95       	com	r20
    1d4c:	30 95       	com	r19
    1d4e:	21 95       	neg	r18
    1d50:	3f 4f       	sbci	r19, 0xFF	; 255
    1d52:	4f 4f       	sbci	r20, 0xFF	; 255
    1d54:	5f 4f       	sbci	r21, 0xFF	; 255

00001d56 <__divmodsi4_exit>:
    1d56:	08 95       	ret

00001d58 <__negsi2>:
    1d58:	90 95       	com	r25
    1d5a:	80 95       	com	r24
    1d5c:	70 95       	com	r23
    1d5e:	61 95       	neg	r22
    1d60:	7f 4f       	sbci	r23, 0xFF	; 255
    1d62:	8f 4f       	sbci	r24, 0xFF	; 255
    1d64:	9f 4f       	sbci	r25, 0xFF	; 255
    1d66:	08 95       	ret

00001d68 <__tablejump2__>:
    1d68:	ee 0f       	add	r30, r30
    1d6a:	ff 1f       	adc	r31, r31
    1d6c:	88 1f       	adc	r24, r24
    1d6e:	8b bf       	out	0x3b, r24	; 59
    1d70:	07 90       	elpm	r0, Z+
    1d72:	f6 91       	elpm	r31, Z
    1d74:	e0 2d       	mov	r30, r0
    1d76:	19 94       	eijmp

00001d78 <__mulhisi3>:
    1d78:	05 d0       	rcall	.+10     	; 0x1d84 <__umulhisi3>
    1d7a:	33 23       	and	r19, r19
    1d7c:	12 f4       	brpl	.+4      	; 0x1d82 <__mulhisi3+0xa>
    1d7e:	8a 1b       	sub	r24, r26
    1d80:	9b 0b       	sbc	r25, r27
    1d82:	10 c0       	rjmp	.+32     	; 0x1da4 <__usmulhisi3_tail>

00001d84 <__umulhisi3>:
    1d84:	a2 9f       	mul	r26, r18
    1d86:	b0 01       	movw	r22, r0
    1d88:	b3 9f       	mul	r27, r19
    1d8a:	c0 01       	movw	r24, r0
    1d8c:	a3 9f       	mul	r26, r19
    1d8e:	70 0d       	add	r23, r0
    1d90:	81 1d       	adc	r24, r1
    1d92:	11 24       	eor	r1, r1
    1d94:	91 1d       	adc	r25, r1
    1d96:	b2 9f       	mul	r27, r18
    1d98:	70 0d       	add	r23, r0
    1d9a:	81 1d       	adc	r24, r1
    1d9c:	11 24       	eor	r1, r1
    1d9e:	91 1d       	adc	r25, r1
    1da0:	08 95       	ret

00001da2 <__usmulhisi3>:
    1da2:	f0 df       	rcall	.-32     	; 0x1d84 <__umulhisi3>

00001da4 <__usmulhisi3_tail>:
    1da4:	b7 ff       	sbrs	r27, 7
    1da6:	08 95       	ret
    1da8:	82 1b       	sub	r24, r18
    1daa:	93 0b       	sbc	r25, r19
    1dac:	08 95       	ret

00001dae <__mulshisi3>:
    1dae:	b7 ff       	sbrs	r27, 7
    1db0:	3a c0       	rjmp	.+116    	; 0x1e26 <__muluhisi3>

00001db2 <__mulohisi3>:
    1db2:	39 d0       	rcall	.+114    	; 0x1e26 <__muluhisi3>
    1db4:	82 1b       	sub	r24, r18
    1db6:	93 0b       	sbc	r25, r19
    1db8:	08 95       	ret

00001dba <__udivmodhi4>:
    1dba:	aa 1b       	sub	r26, r26
    1dbc:	bb 1b       	sub	r27, r27
    1dbe:	51 e1       	ldi	r21, 0x11	; 17
    1dc0:	07 c0       	rjmp	.+14     	; 0x1dd0 <__udivmodhi4_ep>

00001dc2 <__udivmodhi4_loop>:
    1dc2:	aa 1f       	adc	r26, r26
    1dc4:	bb 1f       	adc	r27, r27
    1dc6:	a6 17       	cp	r26, r22
    1dc8:	b7 07       	cpc	r27, r23
    1dca:	10 f0       	brcs	.+4      	; 0x1dd0 <__udivmodhi4_ep>
    1dcc:	a6 1b       	sub	r26, r22
    1dce:	b7 0b       	sbc	r27, r23

00001dd0 <__udivmodhi4_ep>:
    1dd0:	88 1f       	adc	r24, r24
    1dd2:	99 1f       	adc	r25, r25
    1dd4:	5a 95       	dec	r21
    1dd6:	a9 f7       	brne	.-22     	; 0x1dc2 <__udivmodhi4_loop>
    1dd8:	80 95       	com	r24
    1dda:	90 95       	com	r25
    1ddc:	bc 01       	movw	r22, r24
    1dde:	cd 01       	movw	r24, r26
    1de0:	08 95       	ret

00001de2 <__udivmodsi4>:
    1de2:	a1 e2       	ldi	r26, 0x21	; 33
    1de4:	1a 2e       	mov	r1, r26
    1de6:	aa 1b       	sub	r26, r26
    1de8:	bb 1b       	sub	r27, r27
    1dea:	fd 01       	movw	r30, r26
    1dec:	0d c0       	rjmp	.+26     	; 0x1e08 <__udivmodsi4_ep>

00001dee <__udivmodsi4_loop>:
    1dee:	aa 1f       	adc	r26, r26
    1df0:	bb 1f       	adc	r27, r27
    1df2:	ee 1f       	adc	r30, r30
    1df4:	ff 1f       	adc	r31, r31
    1df6:	a2 17       	cp	r26, r18
    1df8:	b3 07       	cpc	r27, r19
    1dfa:	e4 07       	cpc	r30, r20
    1dfc:	f5 07       	cpc	r31, r21
    1dfe:	20 f0       	brcs	.+8      	; 0x1e08 <__udivmodsi4_ep>
    1e00:	a2 1b       	sub	r26, r18
    1e02:	b3 0b       	sbc	r27, r19
    1e04:	e4 0b       	sbc	r30, r20
    1e06:	f5 0b       	sbc	r31, r21

00001e08 <__udivmodsi4_ep>:
    1e08:	66 1f       	adc	r22, r22
    1e0a:	77 1f       	adc	r23, r23
    1e0c:	88 1f       	adc	r24, r24
    1e0e:	99 1f       	adc	r25, r25
    1e10:	1a 94       	dec	r1
    1e12:	69 f7       	brne	.-38     	; 0x1dee <__udivmodsi4_loop>
    1e14:	60 95       	com	r22
    1e16:	70 95       	com	r23
    1e18:	80 95       	com	r24
    1e1a:	90 95       	com	r25
    1e1c:	9b 01       	movw	r18, r22
    1e1e:	ac 01       	movw	r20, r24
    1e20:	bd 01       	movw	r22, r26
    1e22:	cf 01       	movw	r24, r30
    1e24:	08 95       	ret

00001e26 <__muluhisi3>:
    1e26:	ae df       	rcall	.-164    	; 0x1d84 <__umulhisi3>
    1e28:	a5 9f       	mul	r26, r21
    1e2a:	90 0d       	add	r25, r0
    1e2c:	b4 9f       	mul	r27, r20
    1e2e:	90 0d       	add	r25, r0
    1e30:	a4 9f       	mul	r26, r20
    1e32:	80 0d       	add	r24, r0
    1e34:	91 1d       	adc	r25, r1
    1e36:	11 24       	eor	r1, r1
    1e38:	08 95       	ret

00001e3a <malloc>:
    1e3a:	cf 93       	push	r28
    1e3c:	df 93       	push	r29
    1e3e:	82 30       	cpi	r24, 0x02	; 2
    1e40:	91 05       	cpc	r25, r1
    1e42:	10 f4       	brcc	.+4      	; 0x1e48 <malloc+0xe>
    1e44:	82 e0       	ldi	r24, 0x02	; 2
    1e46:	90 e0       	ldi	r25, 0x00	; 0
    1e48:	e0 91 25 06 	lds	r30, 0x0625	; 0x800625 <__flp>
    1e4c:	f0 91 26 06 	lds	r31, 0x0626	; 0x800626 <__flp+0x1>
    1e50:	20 e0       	ldi	r18, 0x00	; 0
    1e52:	30 e0       	ldi	r19, 0x00	; 0
    1e54:	c0 e0       	ldi	r28, 0x00	; 0
    1e56:	d0 e0       	ldi	r29, 0x00	; 0
    1e58:	30 97       	sbiw	r30, 0x00	; 0
    1e5a:	11 f1       	breq	.+68     	; 0x1ea0 <malloc+0x66>
    1e5c:	40 81       	ld	r20, Z
    1e5e:	51 81       	ldd	r21, Z+1	; 0x01
    1e60:	48 17       	cp	r20, r24
    1e62:	59 07       	cpc	r21, r25
    1e64:	c0 f0       	brcs	.+48     	; 0x1e96 <malloc+0x5c>
    1e66:	48 17       	cp	r20, r24
    1e68:	59 07       	cpc	r21, r25
    1e6a:	61 f4       	brne	.+24     	; 0x1e84 <malloc+0x4a>
    1e6c:	82 81       	ldd	r24, Z+2	; 0x02
    1e6e:	93 81       	ldd	r25, Z+3	; 0x03
    1e70:	20 97       	sbiw	r28, 0x00	; 0
    1e72:	19 f0       	breq	.+6      	; 0x1e7a <malloc+0x40>
    1e74:	9b 83       	std	Y+3, r25	; 0x03
    1e76:	8a 83       	std	Y+2, r24	; 0x02
    1e78:	2b c0       	rjmp	.+86     	; 0x1ed0 <malloc+0x96>
    1e7a:	90 93 26 06 	sts	0x0626, r25	; 0x800626 <__flp+0x1>
    1e7e:	80 93 25 06 	sts	0x0625, r24	; 0x800625 <__flp>
    1e82:	26 c0       	rjmp	.+76     	; 0x1ed0 <malloc+0x96>
    1e84:	21 15       	cp	r18, r1
    1e86:	31 05       	cpc	r19, r1
    1e88:	19 f0       	breq	.+6      	; 0x1e90 <malloc+0x56>
    1e8a:	42 17       	cp	r20, r18
    1e8c:	53 07       	cpc	r21, r19
    1e8e:	18 f4       	brcc	.+6      	; 0x1e96 <malloc+0x5c>
    1e90:	9a 01       	movw	r18, r20
    1e92:	be 01       	movw	r22, r28
    1e94:	df 01       	movw	r26, r30
    1e96:	ef 01       	movw	r28, r30
    1e98:	02 80       	ldd	r0, Z+2	; 0x02
    1e9a:	f3 81       	ldd	r31, Z+3	; 0x03
    1e9c:	e0 2d       	mov	r30, r0
    1e9e:	dc cf       	rjmp	.-72     	; 0x1e58 <malloc+0x1e>
    1ea0:	21 15       	cp	r18, r1
    1ea2:	31 05       	cpc	r19, r1
    1ea4:	09 f1       	breq	.+66     	; 0x1ee8 <malloc+0xae>
    1ea6:	28 1b       	sub	r18, r24
    1ea8:	39 0b       	sbc	r19, r25
    1eaa:	24 30       	cpi	r18, 0x04	; 4
    1eac:	31 05       	cpc	r19, r1
    1eae:	90 f4       	brcc	.+36     	; 0x1ed4 <malloc+0x9a>
    1eb0:	12 96       	adiw	r26, 0x02	; 2
    1eb2:	8d 91       	ld	r24, X+
    1eb4:	9c 91       	ld	r25, X
    1eb6:	13 97       	sbiw	r26, 0x03	; 3
    1eb8:	61 15       	cp	r22, r1
    1eba:	71 05       	cpc	r23, r1
    1ebc:	21 f0       	breq	.+8      	; 0x1ec6 <malloc+0x8c>
    1ebe:	fb 01       	movw	r30, r22
    1ec0:	93 83       	std	Z+3, r25	; 0x03
    1ec2:	82 83       	std	Z+2, r24	; 0x02
    1ec4:	04 c0       	rjmp	.+8      	; 0x1ece <malloc+0x94>
    1ec6:	90 93 26 06 	sts	0x0626, r25	; 0x800626 <__flp+0x1>
    1eca:	80 93 25 06 	sts	0x0625, r24	; 0x800625 <__flp>
    1ece:	fd 01       	movw	r30, r26
    1ed0:	32 96       	adiw	r30, 0x02	; 2
    1ed2:	44 c0       	rjmp	.+136    	; 0x1f5c <malloc+0x122>
    1ed4:	fd 01       	movw	r30, r26
    1ed6:	e2 0f       	add	r30, r18
    1ed8:	f3 1f       	adc	r31, r19
    1eda:	81 93       	st	Z+, r24
    1edc:	91 93       	st	Z+, r25
    1ede:	22 50       	subi	r18, 0x02	; 2
    1ee0:	31 09       	sbc	r19, r1
    1ee2:	2d 93       	st	X+, r18
    1ee4:	3c 93       	st	X, r19
    1ee6:	3a c0       	rjmp	.+116    	; 0x1f5c <malloc+0x122>
    1ee8:	20 91 23 06 	lds	r18, 0x0623	; 0x800623 <__brkval>
    1eec:	30 91 24 06 	lds	r19, 0x0624	; 0x800624 <__brkval+0x1>
    1ef0:	23 2b       	or	r18, r19
    1ef2:	41 f4       	brne	.+16     	; 0x1f04 <malloc+0xca>
    1ef4:	20 91 02 02 	lds	r18, 0x0202	; 0x800202 <__malloc_heap_start>
    1ef8:	30 91 03 02 	lds	r19, 0x0203	; 0x800203 <__malloc_heap_start+0x1>
    1efc:	30 93 24 06 	sts	0x0624, r19	; 0x800624 <__brkval+0x1>
    1f00:	20 93 23 06 	sts	0x0623, r18	; 0x800623 <__brkval>
    1f04:	20 91 00 02 	lds	r18, 0x0200	; 0x800200 <__data_start>
    1f08:	30 91 01 02 	lds	r19, 0x0201	; 0x800201 <__data_start+0x1>
    1f0c:	21 15       	cp	r18, r1
    1f0e:	31 05       	cpc	r19, r1
    1f10:	41 f4       	brne	.+16     	; 0x1f22 <malloc+0xe8>
    1f12:	2d b7       	in	r18, 0x3d	; 61
    1f14:	3e b7       	in	r19, 0x3e	; 62
    1f16:	40 91 04 02 	lds	r20, 0x0204	; 0x800204 <__malloc_margin>
    1f1a:	50 91 05 02 	lds	r21, 0x0205	; 0x800205 <__malloc_margin+0x1>
    1f1e:	24 1b       	sub	r18, r20
    1f20:	35 0b       	sbc	r19, r21
    1f22:	e0 91 23 06 	lds	r30, 0x0623	; 0x800623 <__brkval>
    1f26:	f0 91 24 06 	lds	r31, 0x0624	; 0x800624 <__brkval+0x1>
    1f2a:	e2 17       	cp	r30, r18
    1f2c:	f3 07       	cpc	r31, r19
    1f2e:	a0 f4       	brcc	.+40     	; 0x1f58 <malloc+0x11e>
    1f30:	2e 1b       	sub	r18, r30
    1f32:	3f 0b       	sbc	r19, r31
    1f34:	28 17       	cp	r18, r24
    1f36:	39 07       	cpc	r19, r25
    1f38:	78 f0       	brcs	.+30     	; 0x1f58 <malloc+0x11e>
    1f3a:	ac 01       	movw	r20, r24
    1f3c:	4e 5f       	subi	r20, 0xFE	; 254
    1f3e:	5f 4f       	sbci	r21, 0xFF	; 255
    1f40:	24 17       	cp	r18, r20
    1f42:	35 07       	cpc	r19, r21
    1f44:	48 f0       	brcs	.+18     	; 0x1f58 <malloc+0x11e>
    1f46:	4e 0f       	add	r20, r30
    1f48:	5f 1f       	adc	r21, r31
    1f4a:	50 93 24 06 	sts	0x0624, r21	; 0x800624 <__brkval+0x1>
    1f4e:	40 93 23 06 	sts	0x0623, r20	; 0x800623 <__brkval>
    1f52:	81 93       	st	Z+, r24
    1f54:	91 93       	st	Z+, r25
    1f56:	02 c0       	rjmp	.+4      	; 0x1f5c <malloc+0x122>
    1f58:	e0 e0       	ldi	r30, 0x00	; 0
    1f5a:	f0 e0       	ldi	r31, 0x00	; 0
    1f5c:	cf 01       	movw	r24, r30
    1f5e:	df 91       	pop	r29
    1f60:	cf 91       	pop	r28
    1f62:	08 95       	ret

00001f64 <free>:
    1f64:	0f 93       	push	r16
    1f66:	1f 93       	push	r17
    1f68:	cf 93       	push	r28
    1f6a:	df 93       	push	r29
    1f6c:	00 97       	sbiw	r24, 0x00	; 0
    1f6e:	09 f4       	brne	.+2      	; 0x1f72 <free+0xe>
    1f70:	8c c0       	rjmp	.+280    	; 0x208a <free+0x126>
    1f72:	fc 01       	movw	r30, r24
    1f74:	32 97       	sbiw	r30, 0x02	; 2
    1f76:	13 82       	std	Z+3, r1	; 0x03
    1f78:	12 82       	std	Z+2, r1	; 0x02
    1f7a:	00 91 25 06 	lds	r16, 0x0625	; 0x800625 <__flp>
    1f7e:	10 91 26 06 	lds	r17, 0x0626	; 0x800626 <__flp+0x1>
    1f82:	01 15       	cp	r16, r1
    1f84:	11 05       	cpc	r17, r1
    1f86:	81 f4       	brne	.+32     	; 0x1fa8 <free+0x44>
    1f88:	20 81       	ld	r18, Z
    1f8a:	31 81       	ldd	r19, Z+1	; 0x01
    1f8c:	82 0f       	add	r24, r18
    1f8e:	93 1f       	adc	r25, r19
    1f90:	20 91 23 06 	lds	r18, 0x0623	; 0x800623 <__brkval>
    1f94:	30 91 24 06 	lds	r19, 0x0624	; 0x800624 <__brkval+0x1>
    1f98:	28 17       	cp	r18, r24
    1f9a:	39 07       	cpc	r19, r25
    1f9c:	79 f5       	brne	.+94     	; 0x1ffc <free+0x98>
    1f9e:	f0 93 24 06 	sts	0x0624, r31	; 0x800624 <__brkval+0x1>
    1fa2:	e0 93 23 06 	sts	0x0623, r30	; 0x800623 <__brkval>
    1fa6:	71 c0       	rjmp	.+226    	; 0x208a <free+0x126>
    1fa8:	d8 01       	movw	r26, r16
    1faa:	40 e0       	ldi	r20, 0x00	; 0
    1fac:	50 e0       	ldi	r21, 0x00	; 0
    1fae:	ae 17       	cp	r26, r30
    1fb0:	bf 07       	cpc	r27, r31
    1fb2:	50 f4       	brcc	.+20     	; 0x1fc8 <free+0x64>
    1fb4:	12 96       	adiw	r26, 0x02	; 2
    1fb6:	2d 91       	ld	r18, X+
    1fb8:	3c 91       	ld	r19, X
    1fba:	13 97       	sbiw	r26, 0x03	; 3
    1fbc:	ad 01       	movw	r20, r26
    1fbe:	21 15       	cp	r18, r1
    1fc0:	31 05       	cpc	r19, r1
    1fc2:	09 f1       	breq	.+66     	; 0x2006 <free+0xa2>
    1fc4:	d9 01       	movw	r26, r18
    1fc6:	f3 cf       	rjmp	.-26     	; 0x1fae <free+0x4a>
    1fc8:	9d 01       	movw	r18, r26
    1fca:	da 01       	movw	r26, r20
    1fcc:	33 83       	std	Z+3, r19	; 0x03
    1fce:	22 83       	std	Z+2, r18	; 0x02
    1fd0:	60 81       	ld	r22, Z
    1fd2:	71 81       	ldd	r23, Z+1	; 0x01
    1fd4:	86 0f       	add	r24, r22
    1fd6:	97 1f       	adc	r25, r23
    1fd8:	82 17       	cp	r24, r18
    1fda:	93 07       	cpc	r25, r19
    1fdc:	69 f4       	brne	.+26     	; 0x1ff8 <free+0x94>
    1fde:	ec 01       	movw	r28, r24
    1fe0:	28 81       	ld	r18, Y
    1fe2:	39 81       	ldd	r19, Y+1	; 0x01
    1fe4:	26 0f       	add	r18, r22
    1fe6:	37 1f       	adc	r19, r23
    1fe8:	2e 5f       	subi	r18, 0xFE	; 254
    1fea:	3f 4f       	sbci	r19, 0xFF	; 255
    1fec:	31 83       	std	Z+1, r19	; 0x01
    1fee:	20 83       	st	Z, r18
    1ff0:	8a 81       	ldd	r24, Y+2	; 0x02
    1ff2:	9b 81       	ldd	r25, Y+3	; 0x03
    1ff4:	93 83       	std	Z+3, r25	; 0x03
    1ff6:	82 83       	std	Z+2, r24	; 0x02
    1ff8:	45 2b       	or	r20, r21
    1ffa:	29 f4       	brne	.+10     	; 0x2006 <free+0xa2>
    1ffc:	f0 93 26 06 	sts	0x0626, r31	; 0x800626 <__flp+0x1>
    2000:	e0 93 25 06 	sts	0x0625, r30	; 0x800625 <__flp>
    2004:	42 c0       	rjmp	.+132    	; 0x208a <free+0x126>
    2006:	13 96       	adiw	r26, 0x03	; 3
    2008:	fc 93       	st	X, r31
    200a:	ee 93       	st	-X, r30
    200c:	12 97       	sbiw	r26, 0x02	; 2
    200e:	ed 01       	movw	r28, r26
    2010:	49 91       	ld	r20, Y+
    2012:	59 91       	ld	r21, Y+
    2014:	9e 01       	movw	r18, r28
    2016:	24 0f       	add	r18, r20
    2018:	35 1f       	adc	r19, r21
    201a:	e2 17       	cp	r30, r18
    201c:	f3 07       	cpc	r31, r19
    201e:	71 f4       	brne	.+28     	; 0x203c <free+0xd8>
    2020:	80 81       	ld	r24, Z
    2022:	91 81       	ldd	r25, Z+1	; 0x01
    2024:	84 0f       	add	r24, r20
    2026:	95 1f       	adc	r25, r21
    2028:	02 96       	adiw	r24, 0x02	; 2
    202a:	11 96       	adiw	r26, 0x01	; 1
    202c:	9c 93       	st	X, r25
    202e:	8e 93       	st	-X, r24
    2030:	82 81       	ldd	r24, Z+2	; 0x02
    2032:	93 81       	ldd	r25, Z+3	; 0x03
    2034:	13 96       	adiw	r26, 0x03	; 3
    2036:	9c 93       	st	X, r25
    2038:	8e 93       	st	-X, r24
    203a:	12 97       	sbiw	r26, 0x02	; 2
    203c:	e0 e0       	ldi	r30, 0x00	; 0
    203e:	f0 e0       	ldi	r31, 0x00	; 0
    2040:	d8 01       	movw	r26, r16
    2042:	12 96       	adiw	r26, 0x02	; 2
    2044:	8d 91       	ld	r24, X+
    2046:	9c 91       	ld	r25, X
    2048:	13 97       	sbiw	r26, 0x03	; 3
    204a:	00 97       	sbiw	r24, 0x00	; 0
    204c:	19 f0       	breq	.+6      	; 0x2054 <free+0xf0>
    204e:	f8 01       	movw	r30, r16
    2050:	8c 01       	movw	r16, r24
    2052:	f6 cf       	rjmp	.-20     	; 0x2040 <free+0xdc>
    2054:	8d 91       	ld	r24, X+
    2056:	9c 91       	ld	r25, X
    2058:	98 01       	movw	r18, r16
    205a:	2e 5f       	subi	r18, 0xFE	; 254
    205c:	3f 4f       	sbci	r19, 0xFF	; 255
    205e:	82 0f       	add	r24, r18
    2060:	93 1f       	adc	r25, r19
    2062:	20 91 23 06 	lds	r18, 0x0623	; 0x800623 <__brkval>
    2066:	30 91 24 06 	lds	r19, 0x0624	; 0x800624 <__brkval+0x1>
    206a:	28 17       	cp	r18, r24
    206c:	39 07       	cpc	r19, r25
    206e:	69 f4       	brne	.+26     	; 0x208a <free+0x126>
    2070:	30 97       	sbiw	r30, 0x00	; 0
    2072:	29 f4       	brne	.+10     	; 0x207e <free+0x11a>
    2074:	10 92 26 06 	sts	0x0626, r1	; 0x800626 <__flp+0x1>
    2078:	10 92 25 06 	sts	0x0625, r1	; 0x800625 <__flp>
    207c:	02 c0       	rjmp	.+4      	; 0x2082 <free+0x11e>
    207e:	13 82       	std	Z+3, r1	; 0x03
    2080:	12 82       	std	Z+2, r1	; 0x02
    2082:	10 93 24 06 	sts	0x0624, r17	; 0x800624 <__brkval+0x1>
    2086:	00 93 23 06 	sts	0x0623, r16	; 0x800623 <__brkval>
    208a:	df 91       	pop	r29
    208c:	cf 91       	pop	r28
    208e:	1f 91       	pop	r17
    2090:	0f 91       	pop	r16
    2092:	08 95       	ret

00002094 <__do_global_dtors>:
    2094:	10 e0       	ldi	r17, 0x00	; 0
    2096:	cb e9       	ldi	r28, 0x9B	; 155
    2098:	d0 e0       	ldi	r29, 0x00	; 0
    209a:	00 e0       	ldi	r16, 0x00	; 0
    209c:	05 c0       	rjmp	.+10     	; 0x20a8 <__do_global_dtors+0x14>
    209e:	80 2f       	mov	r24, r16
    20a0:	fe 01       	movw	r30, r28
    20a2:	62 de       	rcall	.-828    	; 0x1d68 <__tablejump2__>
    20a4:	21 96       	adiw	r28, 0x01	; 1
    20a6:	01 1d       	adc	r16, r1
    20a8:	cc 39       	cpi	r28, 0x9C	; 156
    20aa:	d1 07       	cpc	r29, r17
    20ac:	80 e0       	ldi	r24, 0x00	; 0
    20ae:	08 07       	cpc	r16, r24
    20b0:	b1 f7       	brne	.-20     	; 0x209e <__do_global_dtors+0xa>
    20b2:	f8 94       	cli

000020b4 <__stop_program>:
    20b4:	ff cf       	rjmp	.-2      	; 0x20b4 <__stop_program>
